

Microchip MPLAB XC8 Assembler V2.30 build 20200825195618 
                                                                                               Thu Sep 24 20:54:28 2020

Microchip MPLAB XC8 C Compiler v2.30 (Free license) build 20200825195618 Og1 
     1                           	processor	18F45K50
     2                           	fnconf	rparam,??,?,0
     3                           	pagewidth 120
     4                           	opt	flic
     5                           	psect	nvCOMRAM,global,class=COMRAM,space=1,delta=1,lowdata,noexec
     6                           	psect	nvBANK0,global,class=BANK0,space=1,delta=1,lowdata,noexec
     7                           	psect	cinit,global,reloc=2,class=CODE,delta=1
     8                           	psect	bssCOMRAM,global,class=COMRAM,space=1,delta=1,lowdata,noexec
     9                           	psect	bssBANK0,global,class=BANK0,space=1,delta=1,lowdata,noexec
    10                           	psect	cstackBANK0,global,class=BANK0,space=1,delta=1,lowdata,noexec
    11                           	psect	cstackCOMRAM,global,class=COMRAM,space=1,delta=1,lowdata,noexec
    12                           	psect	text0,global,reloc=2,class=CODE,delta=1
    13                           	psect	text1,global,reloc=2,class=CODE,delta=1
    14                           	psect	text2,global,reloc=2,class=CODE,delta=1
    15                           	psect	text3,global,reloc=2,class=CODE,delta=1
    16                           	psect	text4,global,reloc=2,class=CODE,delta=1
    17                           	psect	text5,global,reloc=2,class=CODE,delta=1
    18                           	psect	text6,global,reloc=2,class=CODE,delta=1
    19                           	psect	text7,global,reloc=2,class=CODE,delta=1
    20                           	psect	text8,global,reloc=2,class=CODE,delta=1
    21                           	psect	text9,global,reloc=2,class=CODE,delta=1
    22                           	psect	intcode,global,reloc=2,class=CODE,delta=1
    23                           	psect	text11,global,reloc=2,class=CODE,delta=1
    24                           	psect	text12,global,reloc=2,class=CODE,delta=1
    25                           	psect	text13,global,reloc=2,class=CODE,delta=1
    26                           	psect	text14,global,reloc=2,class=CODE,delta=1,group=1
    27                           	psect	text15,global,reloc=2,class=CODE,delta=1,group=1
    28                           	psect	text16,global,reloc=2,class=CODE,delta=1,group=1
    29                           	psect	text17,global,reloc=2,class=CODE,delta=1,group=1
    30                           	psect	text18,global,reloc=2,class=CODE,delta=1,group=1
    31                           	psect	text19,global,reloc=2,class=CODE,delta=1,group=1
    32                           	psect	text20,global,reloc=2,class=CODE,delta=1,group=1
    33                           	psect	text21,global,reloc=2,class=CODE,delta=1,group=1
    34                           	psect	text22,global,reloc=2,class=CODE,delta=1
    35                           	psect	text23,global,reloc=2,class=CODE,delta=1
    36                           	psect	text24,global,reloc=2,class=CODE,delta=1
    37                           	psect	text25,global,reloc=2,class=CODE,delta=1
    38                           	psect	text26,global,reloc=2,class=CODE,delta=1
    39                           	psect	text27,global,reloc=2,class=CODE,delta=1
    40                           	psect	text28,global,reloc=2,class=CODE,delta=1
    41                           	psect	intsave_regs,global,class=BIGRAM,space=1,delta=1,noexec
    42                           	psect	text29,global,reloc=2,class=CODE,delta=1
    43                           	psect	rparam,global,class=COMRAM,space=1,delta=1,noexec
    44                           	psect	temp,global,ovrld,common,class=COMRAM,space=1,delta=1
    45                           	psect	idloc,global,abs,ovrld,class=IDLOC,space=5,delta=1,noexec
    46                           	psect	config,global,abs,ovrld,class=CONFIG,space=4,delta=1,noexec
    47  0000                     
    48                           ; Version 2.20
    49                           ; Generated 05/05/2020 GMT
    50                           ; 
    51                           ; Copyright © 2020, Microchip Technology Inc. and its subsidiaries ("Microchip")
    52                           ; All rights reserved.
    53                           ; 
    54                           ; This software is developed by Microchip Technology Inc. and its subsidiaries ("Microch
      +                          ip").
    55                           ; 
    56                           ; Redistribution and use in source and binary forms, with or without modification, are
    57                           ; permitted provided that the following conditions are met:
    58                           ; 
    59                           ;     1. Redistributions of source code must retain the above copyright notice, this lis
      +                          t of
    60                           ;        conditions and the following disclaimer.
    61                           ; 
    62                           ;     2. Redistributions in binary form must reproduce the above copyright notice, this 
      +                          list
    63                           ;        of conditions and the following disclaimer in the documentation and/or other
    64                           ;        materials provided with the distribution.
    65                           ; 
    66                           ;     3. Microchip's name may not be used to endorse or promote products derived from th
      +                          is
    67                           ;        software without specific prior written permission.
    68                           ; 
    69                           ; THIS SOFTWARE IS PROVIDED BY MICROCHIP "AS IS" AND ANY EXPRESS OR IMPLIED WARRANTIES,
    70                           ; INCLUDING, BUT NOT LIMITED TO, THE IMPLIED WARRANTIES OF MERCHANTABILITY AND FITNESS F
      +                          OR
    71                           ; PURPOSE ARE DISCLAIMED.  IN NO EVENT SHALL MICROCHIP BE LIABLE FOR ANY DIRECT, INDIREC
      +                          T,
    72                           ; INCIDENTAL, SPECIAL, EXEMPLARY, OR CONSEQUENTIAL DAMAGES (INCLUDING BUT NOT LIMITED TO
    73                           ; PROCUREMENT OF SUBSTITUTE GOODS OR SERVICES; LOSS OF USE, DATA OR PROFITS; OR BUSINESS
    74                           ; INTERRUPTION) HOWSOEVER CAUSED AND ON ANY THEORY OF LIABILITY, WHETHER IN CONTRACT, ST
      +                          RICT
    75                           ; LIABILITY, OR TORT (INCLUDING NEGLIGENCE OR OTHERWISE) ARISING IN ANY WAY OUT OF THE U
      +                          SE OF
    76                           ; THIS SOFTWARE, EVEN IF ADVISED OF THE POSSIBILITY OF SUCH DAMAGE.
    77                           ; 
    78                           ; 
    79                           ; Code-generator required, PIC18F45K50 Definitions
    80                           ; 
    81                           ; SFR Addresses
    82  0000                     
    83                           	psect	nvCOMRAM
    84  000055                     __pnvCOMRAM:
    85                           	callstack 0
    86  000055                     _INT1_InterruptHandler:
    87                           	callstack 0
    88  000055                     	ds	2
    89  000057                     _timer0ReloadVal:
    90                           	callstack 0
    91  000057                     	ds	2
    92                           
    93                           	psect	nvBANK0
    94  000068                     __pnvBANK0:
    95                           	callstack 0
    96  000068                     _INT0_InterruptHandler:
    97                           	callstack 0
    98  000068                     	ds	2
    99  0000                     _ANSELA	set	3931
   100  0000                     _ANSELE	set	3935
   101  0000                     _ANSELB	set	3932
   102  0000                     _ANSELC	set	3933
   103  0000                     _ANSELD	set	3934
   104  0000                     _PORTC	set	3970
   105  0000                     _LATBbits	set	3978
   106  0000                     _PORTD	set	3971
   107  0000                     _INTCON3bits	set	4080
   108  0000                     _RCONbits	set	4048
   109  0000                     _T0CON	set	4053
   110  0000                     _TMR0L	set	4054
   111  0000                     _TMR0H	set	4055
   112  0000                     _T0CONbits	set	4053
   113  0000                     _ACTCON	set	4021
   114  0000                     _OSCTUNE	set	3995
   115  0000                     _OSCCON2	set	4050
   116  0000                     _OSCCON	set	4051
   117  0000                     _INTCONbits	set	4082
   118  0000                     _INTCON2bits	set	4081
   119  0000                     _WPUB	set	3973
   120  0000                     _TRISD	set	3989
   121  0000                     _TRISC	set	3988
   122  0000                     _TRISB	set	3987
   123  0000                     _TRISA	set	3986
   124  0000                     _TRISE	set	3990
   125  0000                     _LATC	set	3979
   126  0000                     _LATB	set	3978
   127  0000                     _LATA	set	3977
   128  0000                     _LATD	set	3980
   129  0000                     _LATE	set	3981
   130                           
   131                           ; #config settings
   132                           
   133                           	psect	cinit
   134  001492                     __pcinit:
   135                           	callstack 0
   136  001492                     start_initialization:
   137                           	callstack 0
   138  001492                     __initialization:
   139                           	callstack 0
   140                           
   141                           ; Clear objects allocated to BANK0 (3 bytes)
   142  001492  0100               	movlb	0
   143  001494  6B67               	clrf	(__pbssBANK0+2)& (0+255),b
   144  001496  6B66               	clrf	(__pbssBANK0+1)& (0+255),b
   145  001498  6B65               	clrf	__pbssBANK0& (0+255),b
   146                           
   147                           ; Clear objects allocated to COMRAM (8 bytes)
   148  00149A  EE00  F04D         	lfsr	0,__pbssCOMRAM
   149  00149E  0E08               	movlw	8
   150  0014A0                     clear_0:
   151  0014A0  6AEE               	clrf	postinc0,c
   152  0014A2  06E8               	decf	wreg,f,c
   153  0014A4  E1FD               	bnz	clear_0
   154  0014A6                     end_of_initialization:
   155                           	callstack 0
   156  0014A6                     __end_of__initialization:
   157                           	callstack 0
   158  0014A6  9059               	bcf	int$flags,0,c	;clear compiler interrupt flag (level 1)
   159  0014A8  9259               	bcf	int$flags,1,c	;clear compiler interrupt flag (level 2)
   160  0014AA  0E00               	movlw	low (__Lmediumconst shr (0+16))
   161  0014AC  6EF8               	movwf	tblptru,c
   162  0014AE  0100               	movlb	0
   163  0014B0  EF03  F009         	goto	_main	;jump to C main() function
   164                           
   165                           	psect	bssCOMRAM
   166  00004D                     __pbssCOMRAM:
   167                           	callstack 0
   168  00004D                     _distancia:
   169                           	callstack 0
   170  00004D                     	ds	4
   171  000051                     _decena:
   172                           	callstack 0
   173  000051                     	ds	2
   174  000053                     _unidad:
   175                           	callstack 0
   176  000053                     	ds	2
   177                           
   178                           	psect	bssBANK0
   179  000065                     __pbssBANK0:
   180                           	callstack 0
   181  000065                     _decimal:
   182                           	callstack 0
   183  000065                     	ds	2
   184  000067                     _enabletrigger:
   185                           	callstack 0
   186  000067                     	ds	1
   187                           
   188                           	psect	cstackBANK0
   189  000060                     __pcstackBANK0:
   190                           	callstack 0
   191  000060                     ??_TMR0_Initialize:
   192  000060                     INT0_SetInterruptHandler@InterruptHandler:
   193                           	callstack 0
   194  000060                     INT1_SetInterruptHandler@InterruptHandler:
   195                           	callstack 0
   196  000060                     display@num:
   197                           	callstack 0
   198                           
   199                           ; 2 bytes @ 0x0
   200  000060                     	ds	2
   201  000062                     ??_display:
   202                           
   203                           ; 1 bytes @ 0x2
   204  000062                     	ds	2
   205  000064                     ??_main:
   206                           
   207                           ; 1 bytes @ 0x4
   208  000064                     	ds	1
   209                           
   210                           	psect	cstackCOMRAM
   211  000001                     __pcstackCOMRAM:
   212                           	callstack 0
   213  000001                     ?_TMR0_ReadTimer:
   214                           	callstack 0
   215  000001                     ?___wmul:
   216                           	callstack 0
   217  000001                     ?___fladd:
   218                           	callstack 0
   219  000001                     ?___fldiv:
   220                           	callstack 0
   221  000001                     ___wmul@multiplier:
   222                           	callstack 0
   223  000001                     ___fladd@b:
   224                           	callstack 0
   225  000001                     ___fldiv@b:
   226                           	callstack 0
   227                           
   228                           ; 4 bytes @ 0x0
   229  000001                     	ds	2
   230  000003                     ??_TMR0_ReadTimer:
   231  000003                     ___wmul@multiplicand:
   232                           	callstack 0
   233                           
   234                           ; 2 bytes @ 0x2
   235  000003                     	ds	2
   236  000005                     TMR0_ReadTimer@readVal:
   237                           	callstack 0
   238  000005                     ___wmul@product:
   239                           	callstack 0
   240  000005                     ___fladd@a:
   241                           	callstack 0
   242  000005                     ___fldiv@a:
   243                           	callstack 0
   244                           
   245                           ; 4 bytes @ 0x4
   246  000005                     	ds	2
   247  000007                     TMR0_ReadTimer@readValLow:
   248                           	callstack 0
   249                           
   250                           ; 1 bytes @ 0x6
   251  000007                     	ds	1
   252  000008                     TMR0_ReadTimer@readValHigh:
   253                           	callstack 0
   254                           
   255                           ; 1 bytes @ 0x7
   256  000008                     	ds	1
   257  000009                     ??___fladd:
   258  000009                     ??___fldiv:
   259  000009                     ?___lwdiv:
   260                           	callstack 0
   261  000009                     ___lwdiv@dividend:
   262                           	callstack 0
   263                           
   264                           ; 2 bytes @ 0x8
   265  000009                     	ds	2
   266  00000B                     ___lwdiv@divisor:
   267                           	callstack 0
   268                           
   269                           ; 2 bytes @ 0xA
   270  00000B                     	ds	2
   271  00000D                     ___fladd@signs:
   272                           	callstack 0
   273  00000D                     ___lwdiv@quotient:
   274                           	callstack 0
   275  00000D                     ___fldiv@rem:
   276                           	callstack 0
   277                           
   278                           ; 4 bytes @ 0xC
   279  00000D                     	ds	1
   280  00000E                     ___fladd@aexp:
   281                           	callstack 0
   282                           
   283                           ; 1 bytes @ 0xD
   284  00000E                     	ds	1
   285  00000F                     ___lwdiv@counter:
   286                           	callstack 0
   287  00000F                     ___fladd@bexp:
   288                           	callstack 0
   289                           
   290                           ; 1 bytes @ 0xE
   291  00000F                     	ds	1
   292  000010                     ?___xxtofl:
   293                           	callstack 0
   294  000010                     ___fladd@grs:
   295                           	callstack 0
   296  000010                     ___xxtofl@val:
   297                           	callstack 0
   298                           
   299                           ; 4 bytes @ 0xF
   300  000010                     	ds	1
   301  000011                     ___fldiv@sign:
   302                           	callstack 0
   303                           
   304                           ; 1 bytes @ 0x10
   305  000011                     	ds	1
   306  000012                     ___fldiv@new_exp:
   307                           	callstack 0
   308                           
   309                           ; 2 bytes @ 0x11
   310  000012                     	ds	2
   311  000014                     ??___xxtofl:
   312  000014                     ___fldiv@grs:
   313                           	callstack 0
   314                           
   315                           ; 4 bytes @ 0x13
   316  000014                     	ds	4
   317  000018                     ___fldiv@bexp:
   318                           	callstack 0
   319  000018                     ___xxtofl@sign:
   320                           	callstack 0
   321                           
   322                           ; 1 bytes @ 0x17
   323  000018                     	ds	1
   324  000019                     ___fldiv@aexp:
   325                           	callstack 0
   326  000019                     ___xxtofl@exp:
   327                           	callstack 0
   328                           
   329                           ; 1 bytes @ 0x18
   330  000019                     	ds	1
   331  00001A                     ___xxtofl@arg:
   332                           	callstack 0
   333                           
   334                           ; 4 bytes @ 0x19
   335  00001A                     	ds	4
   336  00001E                     ?___flsub:
   337                           	callstack 0
   338  00001E                     ___flsub@b:
   339                           	callstack 0
   340                           
   341                           ; 4 bytes @ 0x1D
   342  00001E                     	ds	4
   343  000022                     ___flsub@a:
   344                           	callstack 0
   345                           
   346                           ; 4 bytes @ 0x21
   347  000022                     	ds	4
   348  000026                     ?___flmul:
   349                           	callstack 0
   350  000026                     ___flmul@b:
   351                           	callstack 0
   352                           
   353                           ; 4 bytes @ 0x25
   354  000026                     	ds	4
   355  00002A                     ___flmul@a:
   356                           	callstack 0
   357                           
   358                           ; 4 bytes @ 0x29
   359  00002A                     	ds	4
   360  00002E                     ??___flmul:
   361                           
   362                           ; 1 bytes @ 0x2D
   363  00002E                     	ds	4
   364  000032                     ___flmul@sign:
   365                           	callstack 0
   366                           
   367                           ; 1 bytes @ 0x31
   368  000032                     	ds	1
   369  000033                     ___flmul@grs:
   370                           	callstack 0
   371                           
   372                           ; 4 bytes @ 0x32
   373  000033                     	ds	4
   374  000037                     ___flmul@aexp:
   375                           	callstack 0
   376                           
   377                           ; 1 bytes @ 0x36
   378  000037                     	ds	1
   379  000038                     ___flmul@bexp:
   380                           	callstack 0
   381                           
   382                           ; 1 bytes @ 0x37
   383  000038                     	ds	1
   384  000039                     ___flmul@prod:
   385                           	callstack 0
   386                           
   387                           ; 4 bytes @ 0x38
   388  000039                     	ds	4
   389  00003D                     ___flmul@temp:
   390                           	callstack 0
   391                           
   392                           ; 2 bytes @ 0x3C
   393  00003D                     	ds	2
   394  00003F                     ?___fltol:
   395                           	callstack 0
   396  00003F                     ___fltol@f1:
   397                           	callstack 0
   398                           
   399                           ; 4 bytes @ 0x3E
   400  00003F                     	ds	4
   401  000043                     ??___fltol:
   402                           
   403                           ; 1 bytes @ 0x42
   404  000043                     	ds	4
   405  000047                     ___fltol@sign1:
   406                           	callstack 0
   407                           
   408                           ; 1 bytes @ 0x46
   409  000047                     	ds	1
   410  000048                     ___fltol@exp1:
   411                           	callstack 0
   412                           
   413                           ; 1 bytes @ 0x47
   414  000048                     	ds	1
   415  000049                     ??_INTERRUPT_InterruptManager:
   416  000049                     
   417                           ; 1 bytes @ 0x48
   418  000049                     	ds	4
   419                           
   420 ;;
   421 ;;Main: autosize = 0, tempsize = 1, incstack = 0, save=0
   422 ;;
   423 ;; *************** function _main *****************
   424 ;; Defined at:
   425 ;;		line 41 in file "main.c"
   426 ;; Parameters:    Size  Location     Type
   427 ;;		None
   428 ;; Auto vars:     Size  Location     Type
   429 ;;		None
   430 ;; Return value:  Size  Location     Type
   431 ;;                  1    wreg      void 
   432 ;; Registers used:
   433 ;;		wreg, status,2, status,0, cstack
   434 ;; Tracked objects:
   435 ;;		On entry : 0/0
   436 ;;		On exit  : 0/0
   437 ;;		Unchanged: 0/0
   438 ;; Data sizes:     COMRAM   BANK0   BANK1   BANK2   BANK3   BANK4   BANK5   BANK6   BANK7
   439 ;;      Params:         0       0       0       0       0       0       0       0       0
   440 ;;      Locals:         0       0       0       0       0       0       0       0       0
   441 ;;      Temps:          0       1       0       0       0       0       0       0       0
   442 ;;      Totals:         0       1       0       0       0       0       0       0       0
   443 ;;Total ram usage:        1 bytes
   444 ;; Hardware stack levels required when called:    9
   445 ;; This function calls:
   446 ;;		_SYSTEM_Initialize
   447 ;;		_display
   448 ;; This function is called by:
   449 ;;		Startup code after reset
   450 ;; This function uses a non-reentrant model
   451 ;;
   452                           
   453                           	psect	text0
   454  001206                     __ptext0:
   455                           	callstack 0
   456  001206                     _main:
   457                           	callstack 22
   458  001206                     
   459                           ;main.c: 44:     SYSTEM_Initialize();
   460  001206  EC69  F00A         	call	_SYSTEM_Initialize	;wreg free
   461  00120A                     
   462                           ;main.c: 51:     (INTCONbits.GIE = 1);
   463  00120A  8EF2               	bsf	242,7,c	;volatile
   464  00120C                     
   465                           ;main.c: 57:     (INTCONbits.PEIE = 1);
   466  00120C  8CF2               	bsf	242,6,c	;volatile
   467  00120E  848A               	bsf	138,2,c	;volatile
   468  001210                     
   469                           ;main.c: 64:     _delay((unsigned long)((10)*(4000000/4000000.0)));
   470  001210  0E03               	movlw	3
   471  001212                     u2217:
   472  001212  2EE8               	decfsz	wreg,f,c
   473  001214  D7FE               	bra	u2217
   474  001216  F000               	nop	
   475  001218  948A               	bcf	138,2,c	;volatile
   476  00121A                     l2480:
   477                           
   478                           ;main.c: 68:     {;main.c: 69:         PORTC = 0b00000001;
   479  00121A  0E01               	movlw	1
   480  00121C  6E82               	movwf	130,c	;volatile
   481  00121E                     
   482                           ;main.c: 70:         display(decena);
   483  00121E  C051  F060         	movff	_decena,display@num
   484  001222  C052  F061         	movff	_decena+1,display@num+1
   485  001226  ECA1  F008         	call	_display	;wreg free
   486  00122A                     
   487                           ;main.c: 71:         _delay((unsigned long)((10)*(4000000/4000.0)));
   488  00122A  0E0D               	movlw	13
   489  00122C  0100               	movlb	0	; () banked
   490  00122E  6F64               	movwf	??_main& (0+255),b
   491  001230  0EFB               	movlw	251
   492  001232                     u2227:
   493  001232  2EE8               	decfsz	wreg,f,c
   494  001234  D7FE               	bra	u2227
   495  001236  2F64               	decfsz	??_main& (0+255),f,b
   496  001238  D7FC               	bra	u2227
   497  00123A  D000               	nop2	
   498                           
   499                           ;main.c: 72:         PORTC = 0b00000010;
   500  00123C  0E02               	movlw	2
   501  00123E  6E82               	movwf	130,c	;volatile
   502  001240                     
   503                           ;main.c: 73:         display(unidad);
   504  001240  C053  F060         	movff	_unidad,display@num
   505  001244  C054  F061         	movff	_unidad+1,display@num+1
   506  001248  ECA1  F008         	call	_display	;wreg free
   507  00124C                     
   508                           ;main.c: 74:          _delay((unsigned long)((10)*(4000000/4000.0)));
   509  00124C  0E0D               	movlw	13
   510  00124E  0100               	movlb	0	; () banked
   511  001250  6F64               	movwf	??_main& (0+255),b
   512  001252  0EFB               	movlw	251
   513  001254                     u2237:
   514  001254  2EE8               	decfsz	wreg,f,c
   515  001256  D7FE               	bra	u2237
   516  001258  2F64               	decfsz	??_main& (0+255),f,b
   517  00125A  D7FC               	bra	u2237
   518  00125C  D000               	nop2	
   519  00125E                     
   520                           ;main.c: 75:         PORTC = 0b00000100;
   521  00125E  0E04               	movlw	4
   522  001260  6E82               	movwf	130,c	;volatile
   523  001262                     
   524                           ;main.c: 76:         display(decimal);
   525  001262  C065  F060         	movff	_decimal,display@num
   526  001266  C066  F061         	movff	_decimal+1,display@num+1
   527  00126A  ECA1  F008         	call	_display	;wreg free
   528                           
   529                           ;main.c: 77:         _delay((unsigned long)((10)*(4000000/4000.0)));
   530  00126E  0E0D               	movlw	13
   531  001270  0100               	movlb	0	; () banked
   532  001272  6F64               	movwf	??_main& (0+255),b
   533  001274  0EFB               	movlw	251
   534  001276                     u2247:
   535  001276  2EE8               	decfsz	wreg,f,c
   536  001278  D7FE               	bra	u2247
   537  00127A  2F64               	decfsz	??_main& (0+255),f,b
   538  00127C  D7FC               	bra	u2247
   539  00127E  D000               	nop2	
   540  001280                     
   541                           ;main.c: 79:         if(enabletrigger){
   542  001280  0100               	movlb	0	; () banked
   543  001282  5167               	movf	_enabletrigger& (0+255),w,b
   544  001284  B4D8               	btfsc	status,2,c
   545  001286  EF47  F009         	goto	u2201
   546  00128A  EF49  F009         	goto	u2200
   547  00128E                     u2201:
   548  00128E  EF0D  F009         	goto	l2480
   549  001292                     u2200:
   550  001292                     
   551                           ; BSR set to: 0
   552                           ;main.c: 80:             _delay((unsigned long)((10)*(4000000/4000.0)));
   553  001292  0E0D               	movlw	13
   554  001294  0100               	movlb	0	; () banked
   555  001296  6F64               	movwf	??_main& (0+255),b
   556  001298  0EFB               	movlw	251
   557  00129A                     u2257:
   558  00129A  2EE8               	decfsz	wreg,f,c
   559  00129C  D7FE               	bra	u2257
   560  00129E  2F64               	decfsz	??_main& (0+255),f,b
   561  0012A0  D7FC               	bra	u2257
   562  0012A2  D000               	nop2	
   563  0012A4  848A               	bsf	138,2,c	;volatile
   564  0012A6                     
   565                           ;main.c: 82:             _delay((unsigned long)((10)*(4000000/4000000.0)));
   566  0012A6  0E03               	movlw	3
   567  0012A8                     u2267:
   568  0012A8  2EE8               	decfsz	wreg,f,c
   569  0012AA  D7FE               	bra	u2267
   570  0012AC  F000               	nop	
   571  0012AE  948A               	bcf	138,2,c	;volatile
   572  0012B0                     
   573                           ;main.c: 85:             enabletrigger = 0;
   574  0012B0  0E00               	movlw	0
   575  0012B2  0100               	movlb	0	; () banked
   576  0012B4  6F67               	movwf	_enabletrigger& (0+255),b
   577  0012B6  EF0D  F009         	goto	l2480
   578  0012BA  EF39  F000         	goto	start
   579  0012BE                     __end_of_main:
   580                           	callstack 0
   581                           
   582 ;; *************** function _display *****************
   583 ;; Defined at:
   584 ;;		line 6 in file "main.c"
   585 ;; Parameters:    Size  Location     Type
   586 ;;  num             2    0[BANK0 ] int 
   587 ;; Auto vars:     Size  Location     Type
   588 ;;		None
   589 ;; Return value:  Size  Location     Type
   590 ;;                  1    wreg      void 
   591 ;; Registers used:
   592 ;;		wreg, status,2, status,0
   593 ;; Tracked objects:
   594 ;;		On entry : 0/0
   595 ;;		On exit  : 0/0
   596 ;;		Unchanged: 0/0
   597 ;; Data sizes:     COMRAM   BANK0   BANK1   BANK2   BANK3   BANK4   BANK5   BANK6   BANK7
   598 ;;      Params:         0       2       0       0       0       0       0       0       0
   599 ;;      Locals:         0       0       0       0       0       0       0       0       0
   600 ;;      Temps:          0       2       0       0       0       0       0       0       0
   601 ;;      Totals:         0       4       0       0       0       0       0       0       0
   602 ;;Total ram usage:        4 bytes
   603 ;; Hardware stack levels used:    1
   604 ;; Hardware stack levels required when called:    6
   605 ;; This function calls:
   606 ;;		Nothing
   607 ;; This function is called by:
   608 ;;		_main
   609 ;; This function uses a non-reentrant model
   610 ;;
   611                           
   612                           	psect	text1
   613  001142                     __ptext1:
   614                           	callstack 0
   615  001142                     _display:
   616                           	callstack 24
   617  001142                     
   618                           ;main.c: 8:     switch(num){
   619  001142  EFCB  F008         	goto	l2450
   620  001146                     l2428:
   621                           
   622                           ; BSR set to: 0
   623                           ;main.c: 10:             PORTD = 0b01111110;
   624  001146  0E7E               	movlw	126
   625  001148  6E83               	movwf	131,c	;volatile
   626                           
   627                           ;main.c: 11:             break;
   628  00114A  EF02  F009         	goto	l239
   629  00114E                     l2430:
   630                           
   631                           ; BSR set to: 0
   632                           ;main.c: 13:             PORTD = 0b00110000;
   633  00114E  0E30               	movlw	48
   634  001150  6E83               	movwf	131,c	;volatile
   635                           
   636                           ;main.c: 14:             break;
   637  001152  EF02  F009         	goto	l239
   638  001156                     l2432:
   639                           
   640                           ; BSR set to: 0
   641                           ;main.c: 16:             PORTD = 0b01101101;
   642  001156  0E6D               	movlw	109
   643  001158  6E83               	movwf	131,c	;volatile
   644                           
   645                           ;main.c: 17:             break;
   646  00115A  EF02  F009         	goto	l239
   647  00115E                     l2434:
   648                           
   649                           ; BSR set to: 0
   650                           ;main.c: 19:             PORTD = 0b01111001;
   651  00115E  0E79               	movlw	121
   652  001160  6E83               	movwf	131,c	;volatile
   653                           
   654                           ;main.c: 20:             break;
   655  001162  EF02  F009         	goto	l239
   656  001166                     l2436:
   657                           
   658                           ; BSR set to: 0
   659                           ;main.c: 22:             PORTD = 0b00110011;
   660  001166  0E33               	movlw	51
   661  001168  6E83               	movwf	131,c	;volatile
   662                           
   663                           ;main.c: 23:             break;
   664  00116A  EF02  F009         	goto	l239
   665  00116E                     l2438:
   666                           
   667                           ; BSR set to: 0
   668                           ;main.c: 25:             PORTD = 0b01011011;
   669  00116E  0E5B               	movlw	91
   670  001170  6E83               	movwf	131,c	;volatile
   671                           
   672                           ;main.c: 26:             break;
   673  001172  EF02  F009         	goto	l239
   674  001176                     l2440:
   675                           
   676                           ; BSR set to: 0
   677                           ;main.c: 28:             PORTD = 0b01011111;
   678  001176  0E5F               	movlw	95
   679  001178  6E83               	movwf	131,c	;volatile
   680                           
   681                           ;main.c: 29:             break;
   682  00117A  EF02  F009         	goto	l239
   683  00117E                     l2442:
   684                           
   685                           ; BSR set to: 0
   686                           ;main.c: 31:             PORTD = 0b01110000;
   687  00117E  0E70               	movlw	112
   688  001180  6E83               	movwf	131,c	;volatile
   689                           
   690                           ;main.c: 32:             break;
   691  001182  EF02  F009         	goto	l239
   692  001186                     l2444:
   693                           
   694                           ; BSR set to: 0
   695                           ;main.c: 34:             PORTD = 0b01111111;
   696  001186  0E7F               	movlw	127
   697  001188  6E83               	movwf	131,c	;volatile
   698                           
   699                           ;main.c: 35:             break;
   700  00118A  EF02  F009         	goto	l239
   701  00118E                     l2446:
   702                           
   703                           ; BSR set to: 0
   704                           ;main.c: 37:             PORTD = 0b01111011;
   705  00118E  0E7B               	movlw	123
   706  001190  6E83               	movwf	131,c	;volatile
   707                           
   708                           ;main.c: 38:             break;
   709  001192  EF02  F009         	goto	l239
   710  001196                     l2450:
   711  001196  C060  F062         	movff	display@num,??_display
   712  00119A  C061  F063         	movff	display@num+1,??_display+1
   713                           
   714                           ; Switch on 2 bytes has been partitioned into a top level switch of size 1, and 1 sub-sw
      +                          itches
   715                           ; Switch size 1, requested type "simple"
   716                           ; Number of cases is 1, Range of values is 0 to 0
   717                           ; switch strategies available:
   718                           ; Name         Instructions Cycles
   719                           ; simple_byte            4     3 (average)
   720                           ;	Chosen strategy is simple_byte
   721  00119E  0100               	movlb	0	; () banked
   722  0011A0  5163               	movf	(??_display+1)& (0+255),w,b
   723  0011A2  0A00               	xorlw	0	; case 0
   724  0011A4  B4D8               	btfsc	status,2,c
   725  0011A6  EFD7  F008         	goto	l2534
   726  0011AA  EF02  F009         	goto	l239
   727  0011AE                     l2534:
   728                           
   729                           ; BSR set to: 0
   730                           ; Switch size 1, requested type "simple"
   731                           ; Number of cases is 10, Range of values is 0 to 9
   732                           ; switch strategies available:
   733                           ; Name         Instructions Cycles
   734                           ; simple_byte           31    16 (average)
   735                           ;	Chosen strategy is simple_byte
   736  0011AE  5162               	movf	??_display& (0+255),w,b
   737  0011B0  0A00               	xorlw	0	; case 0
   738  0011B2  B4D8               	btfsc	status,2,c
   739  0011B4  EFA3  F008         	goto	l2428
   740  0011B8  0A01               	xorlw	1	; case 1
   741  0011BA  B4D8               	btfsc	status,2,c
   742  0011BC  EFA7  F008         	goto	l2430
   743  0011C0  0A03               	xorlw	3	; case 2
   744  0011C2  B4D8               	btfsc	status,2,c
   745  0011C4  EFAB  F008         	goto	l2432
   746  0011C8  0A01               	xorlw	1	; case 3
   747  0011CA  B4D8               	btfsc	status,2,c
   748  0011CC  EFAF  F008         	goto	l2434
   749  0011D0  0A07               	xorlw	7	; case 4
   750  0011D2  B4D8               	btfsc	status,2,c
   751  0011D4  EFB3  F008         	goto	l2436
   752  0011D8  0A01               	xorlw	1	; case 5
   753  0011DA  B4D8               	btfsc	status,2,c
   754  0011DC  EFB7  F008         	goto	l2438
   755  0011E0  0A03               	xorlw	3	; case 6
   756  0011E2  B4D8               	btfsc	status,2,c
   757  0011E4  EFBB  F008         	goto	l2440
   758  0011E8  0A01               	xorlw	1	; case 7
   759  0011EA  B4D8               	btfsc	status,2,c
   760  0011EC  EFBF  F008         	goto	l2442
   761  0011F0  0A0F               	xorlw	15	; case 8
   762  0011F2  B4D8               	btfsc	status,2,c
   763  0011F4  EFC3  F008         	goto	l2444
   764  0011F8  0A01               	xorlw	1	; case 9
   765  0011FA  B4D8               	btfsc	status,2,c
   766  0011FC  EFC7  F008         	goto	l2446
   767  001200  EF02  F009         	goto	l239
   768  001204                     l239:
   769                           
   770                           ; BSR set to: 0
   771  001204  0012               	return		;funcret
   772  001206                     __end_of_display:
   773                           	callstack 0
   774                           
   775 ;; *************** function _SYSTEM_Initialize *****************
   776 ;; Defined at:
   777 ;;		line 50 in file "mcc_generated_files/mcc.c"
   778 ;; Parameters:    Size  Location     Type
   779 ;;		None
   780 ;; Auto vars:     Size  Location     Type
   781 ;;		None
   782 ;; Return value:  Size  Location     Type
   783 ;;                  1    wreg      void 
   784 ;; Registers used:
   785 ;;		wreg, status,2, status,0, cstack
   786 ;; Tracked objects:
   787 ;;		On entry : 0/0
   788 ;;		On exit  : 0/0
   789 ;;		Unchanged: 0/0
   790 ;; Data sizes:     COMRAM   BANK0   BANK1   BANK2   BANK3   BANK4   BANK5   BANK6   BANK7
   791 ;;      Params:         0       0       0       0       0       0       0       0       0
   792 ;;      Locals:         0       0       0       0       0       0       0       0       0
   793 ;;      Temps:          0       0       0       0       0       0       0       0       0
   794 ;;      Totals:         0       0       0       0       0       0       0       0       0
   795 ;;Total ram usage:        0 bytes
   796 ;; Hardware stack levels used:    1
   797 ;; Hardware stack levels required when called:    8
   798 ;; This function calls:
   799 ;;		_EXT_INT_Initialize
   800 ;;		_INTERRUPT_Initialize
   801 ;;		_OSCILLATOR_Initialize
   802 ;;		_PIN_MANAGER_Initialize
   803 ;;		_TMR0_Initialize
   804 ;; This function is called by:
   805 ;;		_main
   806 ;; This function uses a non-reentrant model
   807 ;;
   808                           
   809                           	psect	text2
   810  0014D2                     __ptext2:
   811                           	callstack 0
   812  0014D2                     _SYSTEM_Initialize:
   813                           	callstack 22
   814  0014D2                     
   815                           ;mcc_generated_files/mcc.c: 53:     INTERRUPT_Initialize();
   816  0014D2  EC97  F00A         	call	_INTERRUPT_Initialize	;wreg free
   817  0014D6                     
   818                           ;mcc_generated_files/mcc.c: 54:     PIN_MANAGER_Initialize();
   819  0014D6  ECBC  F009         	call	_PIN_MANAGER_Initialize	;wreg free
   820  0014DA                     
   821                           ;mcc_generated_files/mcc.c: 55:     OSCILLATOR_Initialize();
   822  0014DA  EC74  F00A         	call	_OSCILLATOR_Initialize	;wreg free
   823  0014DE                     
   824                           ;mcc_generated_files/mcc.c: 56:     EXT_INT_Initialize();
   825  0014DE  EC21  F00A         	call	_EXT_INT_Initialize	;wreg free
   826  0014E2                     
   827                           ;mcc_generated_files/mcc.c: 57:     TMR0_Initialize();
   828  0014E2  EC0C  F00A         	call	_TMR0_Initialize	;wreg free
   829  0014E6  0012               	return		;funcret
   830  0014E8                     __end_of_SYSTEM_Initialize:
   831                           	callstack 0
   832                           
   833 ;; *************** function _TMR0_Initialize *****************
   834 ;; Defined at:
   835 ;;		line 66 in file "mcc_generated_files/tmr0.c"
   836 ;; Parameters:    Size  Location     Type
   837 ;;		None
   838 ;; Auto vars:     Size  Location     Type
   839 ;;		None
   840 ;; Return value:  Size  Location     Type
   841 ;;                  1    wreg      void 
   842 ;; Registers used:
   843 ;;		wreg, status,2, status,0
   844 ;; Tracked objects:
   845 ;;		On entry : 0/0
   846 ;;		On exit  : 0/0
   847 ;;		Unchanged: 0/0
   848 ;; Data sizes:     COMRAM   BANK0   BANK1   BANK2   BANK3   BANK4   BANK5   BANK6   BANK7
   849 ;;      Params:         0       0       0       0       0       0       0       0       0
   850 ;;      Locals:         0       0       0       0       0       0       0       0       0
   851 ;;      Temps:          0       2       0       0       0       0       0       0       0
   852 ;;      Totals:         0       2       0       0       0       0       0       0       0
   853 ;;Total ram usage:        2 bytes
   854 ;; Hardware stack levels used:    1
   855 ;; Hardware stack levels required when called:    6
   856 ;; This function calls:
   857 ;;		Nothing
   858 ;; This function is called by:
   859 ;;		_SYSTEM_Initialize
   860 ;; This function uses a non-reentrant model
   861 ;;
   862                           
   863                           	psect	text3
   864  001418                     __ptext3:
   865                           	callstack 0
   866  001418                     _TMR0_Initialize:
   867                           	callstack 23
   868  001418                     
   869                           ;mcc_generated_files/tmr0.c: 71:     T0CONbits.T08BIT = 0;
   870  001418  9CD5               	bcf	213,6,c	;volatile
   871  00141A                     
   872                           ;mcc_generated_files/tmr0.c: 74:     TMR0H = 0x00;
   873  00141A  0E00               	movlw	0
   874  00141C  6ED7               	movwf	215,c	;volatile
   875                           
   876                           ;mcc_generated_files/tmr0.c: 77:     TMR0L = 0x00;
   877  00141E  0E00               	movlw	0
   878  001420  6ED6               	movwf	214,c	;volatile
   879  001422                     
   880                           ;mcc_generated_files/tmr0.c: 81:     timer0ReloadVal = (uint16_t)((TMR0H << 8) | TMR0L);
   881  001422  50D6               	movf	214,w,c	;volatile
   882  001424  CFD7 F060          	movff	4055,??_TMR0_Initialize	;volatile
   883  001428  0100               	movlb	0	; () banked
   884  00142A  6B61               	clrf	(??_TMR0_Initialize+1)& (0+255),b
   885  00142C  C060  F061         	movff	??_TMR0_Initialize,??_TMR0_Initialize+1
   886  001430  6B60               	clrf	??_TMR0_Initialize& (0+255),b
   887  001432  1160               	iorwf	??_TMR0_Initialize& (0+255),w,b
   888  001434  6E57               	movwf	_timer0ReloadVal^0,c	;volatile
   889  001436  5161               	movf	(??_TMR0_Initialize+1)& (0+255),w,b
   890  001438  6E58               	movwf	(_timer0ReloadVal+1)^0,c	;volatile
   891  00143A                     
   892                           ; BSR set to: 0
   893                           ;mcc_generated_files/tmr0.c: 84:     INTCONbits.TMR0IF = 0;
   894  00143A  94F2               	bcf	242,2,c	;volatile
   895  00143C                     
   896                           ; BSR set to: 0
   897                           ;mcc_generated_files/tmr0.c: 87:     T0CON = 0x9F;
   898  00143C  0E9F               	movlw	159
   899  00143E  6ED5               	movwf	213,c	;volatile
   900  001440                     
   901                           ; BSR set to: 0
   902  001440  0012               	return		;funcret
   903  001442                     __end_of_TMR0_Initialize:
   904                           	callstack 0
   905                           
   906 ;; *************** function _PIN_MANAGER_Initialize *****************
   907 ;; Defined at:
   908 ;;		line 55 in file "mcc_generated_files/pin_manager.c"
   909 ;; Parameters:    Size  Location     Type
   910 ;;		None
   911 ;; Auto vars:     Size  Location     Type
   912 ;;		None
   913 ;; Return value:  Size  Location     Type
   914 ;;                  1    wreg      void 
   915 ;; Registers used:
   916 ;;		wreg, status,2
   917 ;; Tracked objects:
   918 ;;		On entry : 0/0
   919 ;;		On exit  : 0/0
   920 ;;		Unchanged: 0/0
   921 ;; Data sizes:     COMRAM   BANK0   BANK1   BANK2   BANK3   BANK4   BANK5   BANK6   BANK7
   922 ;;      Params:         0       0       0       0       0       0       0       0       0
   923 ;;      Locals:         0       0       0       0       0       0       0       0       0
   924 ;;      Temps:          0       0       0       0       0       0       0       0       0
   925 ;;      Totals:         0       0       0       0       0       0       0       0       0
   926 ;;Total ram usage:        0 bytes
   927 ;; Hardware stack levels used:    1
   928 ;; Hardware stack levels required when called:    6
   929 ;; This function calls:
   930 ;;		Nothing
   931 ;; This function is called by:
   932 ;;		_SYSTEM_Initialize
   933 ;; This function uses a non-reentrant model
   934 ;;
   935                           
   936                           	psect	text4
   937  001378                     __ptext4:
   938                           	callstack 0
   939  001378                     _PIN_MANAGER_Initialize:
   940                           	callstack 23
   941  001378                     
   942                           ;mcc_generated_files/pin_manager.c: 60:     LATE = 0x00;
   943  001378  0E00               	movlw	0
   944  00137A  6E8D               	movwf	141,c	;volatile
   945                           
   946                           ;mcc_generated_files/pin_manager.c: 61:     LATD = 0x00;
   947  00137C  0E00               	movlw	0
   948  00137E  6E8C               	movwf	140,c	;volatile
   949                           
   950                           ;mcc_generated_files/pin_manager.c: 62:     LATA = 0x00;
   951  001380  0E00               	movlw	0
   952  001382  6E89               	movwf	137,c	;volatile
   953                           
   954                           ;mcc_generated_files/pin_manager.c: 63:     LATB = 0x00;
   955  001384  0E00               	movlw	0
   956  001386  6E8A               	movwf	138,c	;volatile
   957                           
   958                           ;mcc_generated_files/pin_manager.c: 64:     LATC = 0x00;
   959  001388  0E00               	movlw	0
   960  00138A  6E8B               	movwf	139,c	;volatile
   961                           
   962                           ;mcc_generated_files/pin_manager.c: 69:     TRISE = 0x07;
   963  00138C  0E07               	movlw	7
   964  00138E  6E96               	movwf	150,c	;volatile
   965  001390                     
   966                           ;mcc_generated_files/pin_manager.c: 70:     TRISA = 0xFF;
   967  001390  6892               	setf	146,c	;volatile
   968                           
   969                           ;mcc_generated_files/pin_manager.c: 71:     TRISB = 0xFB;
   970  001392  0EFB               	movlw	251
   971  001394  6E93               	movwf	147,c	;volatile
   972                           
   973                           ;mcc_generated_files/pin_manager.c: 72:     TRISC = 0xC0;
   974  001396  0EC0               	movlw	192
   975  001398  6E94               	movwf	148,c	;volatile
   976                           
   977                           ;mcc_generated_files/pin_manager.c: 73:     TRISD = 0x00;
   978  00139A  0E00               	movlw	0
   979  00139C  6E95               	movwf	149,c	;volatile
   980  00139E                     
   981                           ;mcc_generated_files/pin_manager.c: 78:     ANSELD = 0xFF;
   982  00139E  010F               	movlb	15	; () banked
   983  0013A0  695E               	setf	94,b	;volatile
   984                           
   985                           ;mcc_generated_files/pin_manager.c: 79:     ANSELC = 0xC0;
   986  0013A2  0EC0               	movlw	192
   987  0013A4  6F5D               	movwf	93,b	;volatile
   988                           
   989                           ;mcc_generated_files/pin_manager.c: 80:     ANSELB = 0x38;
   990  0013A6  0E38               	movlw	56
   991  0013A8  6F5C               	movwf	92,b	;volatile
   992                           
   993                           ;mcc_generated_files/pin_manager.c: 81:     ANSELE = 0x07;
   994  0013AA  0E07               	movlw	7
   995  0013AC  6F5F               	movwf	95,b	;volatile
   996                           
   997                           ;mcc_generated_files/pin_manager.c: 82:     ANSELA = 0x00;
   998  0013AE  0E00               	movlw	0
   999  0013B0  6F5B               	movwf	91,b	;volatile
  1000                           
  1001                           ;mcc_generated_files/pin_manager.c: 87:     WPUB = 0x00;
  1002  0013B2  0E00               	movlw	0
  1003  0013B4  6E85               	movwf	133,c	;volatile
  1004  0013B6                     
  1005                           ; BSR set to: 15
  1006                           ;mcc_generated_files/pin_manager.c: 88:     INTCON2bits.nRBPU = 1;
  1007  0013B6  8EF1               	bsf	241,7,c	;volatile
  1008  0013B8                     
  1009                           ; BSR set to: 15
  1010  0013B8  0012               	return		;funcret
  1011  0013BA                     __end_of_PIN_MANAGER_Initialize:
  1012                           	callstack 0
  1013                           
  1014 ;; *************** function _OSCILLATOR_Initialize *****************
  1015 ;; Defined at:
  1016 ;;		line 60 in file "mcc_generated_files/mcc.c"
  1017 ;; Parameters:    Size  Location     Type
  1018 ;;		None
  1019 ;; Auto vars:     Size  Location     Type
  1020 ;;		None
  1021 ;; Return value:  Size  Location     Type
  1022 ;;                  1    wreg      void 
  1023 ;; Registers used:
  1024 ;;		wreg, status,2
  1025 ;; Tracked objects:
  1026 ;;		On entry : 0/0
  1027 ;;		On exit  : 0/0
  1028 ;;		Unchanged: 0/0
  1029 ;; Data sizes:     COMRAM   BANK0   BANK1   BANK2   BANK3   BANK4   BANK5   BANK6   BANK7
  1030 ;;      Params:         0       0       0       0       0       0       0       0       0
  1031 ;;      Locals:         0       0       0       0       0       0       0       0       0
  1032 ;;      Temps:          0       0       0       0       0       0       0       0       0
  1033 ;;      Totals:         0       0       0       0       0       0       0       0       0
  1034 ;;Total ram usage:        0 bytes
  1035 ;; Hardware stack levels used:    1
  1036 ;; Hardware stack levels required when called:    6
  1037 ;; This function calls:
  1038 ;;		Nothing
  1039 ;; This function is called by:
  1040 ;;		_SYSTEM_Initialize
  1041 ;; This function uses a non-reentrant model
  1042 ;;
  1043                           
  1044                           	psect	text5
  1045  0014E8                     __ptext5:
  1046                           	callstack 0
  1047  0014E8                     _OSCILLATOR_Initialize:
  1048                           	callstack 23
  1049  0014E8                     
  1050                           ;mcc_generated_files/mcc.c: 63:     OSCCON = 0x52;
  1051  0014E8  0E52               	movlw	82
  1052  0014EA  6ED3               	movwf	211,c	;volatile
  1053                           
  1054                           ;mcc_generated_files/mcc.c: 65:     OSCCON2 = 0x00;
  1055  0014EC  0E00               	movlw	0
  1056  0014EE  6ED2               	movwf	210,c	;volatile
  1057                           
  1058                           ;mcc_generated_files/mcc.c: 67:     OSCTUNE = 0x00;
  1059  0014F0  0E00               	movlw	0
  1060  0014F2  6E9B               	movwf	155,c	;volatile
  1061                           
  1062                           ;mcc_generated_files/mcc.c: 69:     ACTCON = 0x00;
  1063  0014F4  0E00               	movlw	0
  1064  0014F6  6EB5               	movwf	181,c	;volatile
  1065  0014F8  0012               	return		;funcret
  1066  0014FA                     __end_of_OSCILLATOR_Initialize:
  1067                           	callstack 0
  1068                           
  1069 ;; *************** function _INTERRUPT_Initialize *****************
  1070 ;; Defined at:
  1071 ;;		line 52 in file "mcc_generated_files/interrupt_manager.c"
  1072 ;; Parameters:    Size  Location     Type
  1073 ;;		None
  1074 ;; Auto vars:     Size  Location     Type
  1075 ;;		None
  1076 ;; Return value:  Size  Location     Type
  1077 ;;                  1    wreg      void 
  1078 ;; Registers used:
  1079 ;;		None
  1080 ;; Tracked objects:
  1081 ;;		On entry : 0/0
  1082 ;;		On exit  : 0/0
  1083 ;;		Unchanged: 0/0
  1084 ;; Data sizes:     COMRAM   BANK0   BANK1   BANK2   BANK3   BANK4   BANK5   BANK6   BANK7
  1085 ;;      Params:         0       0       0       0       0       0       0       0       0
  1086 ;;      Locals:         0       0       0       0       0       0       0       0       0
  1087 ;;      Temps:          0       0       0       0       0       0       0       0       0
  1088 ;;      Totals:         0       0       0       0       0       0       0       0       0
  1089 ;;Total ram usage:        0 bytes
  1090 ;; Hardware stack levels used:    1
  1091 ;; Hardware stack levels required when called:    6
  1092 ;; This function calls:
  1093 ;;		Nothing
  1094 ;; This function is called by:
  1095 ;;		_SYSTEM_Initialize
  1096 ;; This function uses a non-reentrant model
  1097 ;;
  1098                           
  1099                           	psect	text6
  1100  00152E                     __ptext6:
  1101                           	callstack 0
  1102  00152E                     _INTERRUPT_Initialize:
  1103                           	callstack 23
  1104  00152E  9ED0               	bcf	208,7,c	;volatile
  1105  001530  0012               	return		;funcret
  1106  001532                     __end_of_INTERRUPT_Initialize:
  1107                           	callstack 0
  1108                           
  1109 ;; *************** function _EXT_INT_Initialize *****************
  1110 ;; Defined at:
  1111 ;;		line 93 in file "mcc_generated_files/ext_int.c"
  1112 ;; Parameters:    Size  Location     Type
  1113 ;;		None
  1114 ;; Auto vars:     Size  Location     Type
  1115 ;;		None
  1116 ;; Return value:  Size  Location     Type
  1117 ;;                  1    wreg      void 
  1118 ;; Registers used:
  1119 ;;		wreg, status,2, status,0, cstack
  1120 ;; Tracked objects:
  1121 ;;		On entry : 0/0
  1122 ;;		On exit  : 0/0
  1123 ;;		Unchanged: 0/0
  1124 ;; Data sizes:     COMRAM   BANK0   BANK1   BANK2   BANK3   BANK4   BANK5   BANK6   BANK7
  1125 ;;      Params:         0       0       0       0       0       0       0       0       0
  1126 ;;      Locals:         0       0       0       0       0       0       0       0       0
  1127 ;;      Temps:          0       0       0       0       0       0       0       0       0
  1128 ;;      Totals:         0       0       0       0       0       0       0       0       0
  1129 ;;Total ram usage:        0 bytes
  1130 ;; Hardware stack levels used:    1
  1131 ;; Hardware stack levels required when called:    7
  1132 ;; This function calls:
  1133 ;;		_INT0_SetInterruptHandler
  1134 ;;		_INT1_SetInterruptHandler
  1135 ;; This function is called by:
  1136 ;;		_SYSTEM_Initialize
  1137 ;; This function uses a non-reentrant model
  1138 ;;
  1139                           
  1140                           	psect	text7
  1141  001442                     __ptext7:
  1142                           	callstack 0
  1143  001442                     _EXT_INT_Initialize:
  1144                           	callstack 22
  1145  001442                     
  1146                           ;mcc_generated_files/ext_int.c: 98:     (INTCONbits.INT0IF = 0);
  1147  001442  92F2               	bcf	242,1,c	;volatile
  1148                           
  1149                           ;mcc_generated_files/ext_int.c: 99:     (INTCON2bits.INTEDG0 = 1);
  1150  001444  8CF1               	bsf	241,6,c	;volatile
  1151  001446                     
  1152                           ;mcc_generated_files/ext_int.c: 101:     INT0_SetInterruptHandler(INT0_DefaultInterruptH
      +                          andler);
  1153  001446  0E28               	movlw	low _INT0_DefaultInterruptHandler
  1154  001448  0100               	movlb	0	; () banked
  1155  00144A  6F60               	movwf	INT0_SetInterruptHandler@InterruptHandler& (0+255),b
  1156  00144C  0E15               	movlw	high _INT0_DefaultInterruptHandler
  1157  00144E  6F61               	movwf	(INT0_SetInterruptHandler@InterruptHandler+1)& (0+255),b
  1158  001450  EC82  F00A         	call	_INT0_SetInterruptHandler	;wreg free
  1159  001454                     
  1160                           ;mcc_generated_files/ext_int.c: 102:     (INTCONbits.INT0IE = 1);
  1161  001454  88F2               	bsf	242,4,c	;volatile
  1162  001456                     
  1163                           ;mcc_generated_files/ext_int.c: 107:     (INTCON3bits.INT1IF = 0);
  1164  001456  90F0               	bcf	240,0,c	;volatile
  1165  001458                     
  1166                           ;mcc_generated_files/ext_int.c: 108:     (INTCON2bits.INTEDG1 = 0);
  1167  001458  9AF1               	bcf	241,5,c	;volatile
  1168                           
  1169                           ;mcc_generated_files/ext_int.c: 110:     INT1_SetInterruptHandler(INT1_DefaultInterruptH
      +                          andler);
  1170  00145A  0EAE               	movlw	low _INT1_DefaultInterruptHandler
  1171  00145C  0100               	movlb	0	; () banked
  1172  00145E  6F60               	movwf	INT1_SetInterruptHandler@InterruptHandler& (0+255),b
  1173  001460  0E0E               	movlw	high _INT1_DefaultInterruptHandler
  1174  001462  6F61               	movwf	(INT1_SetInterruptHandler@InterruptHandler+1)& (0+255),b
  1175  001464  EC7D  F00A         	call	_INT1_SetInterruptHandler	;wreg free
  1176  001468                     
  1177                           ;mcc_generated_files/ext_int.c: 111:     (INTCON3bits.INT1IE = 1);
  1178  001468  86F0               	bsf	240,3,c	;volatile
  1179  00146A  0012               	return		;funcret
  1180  00146C                     __end_of_EXT_INT_Initialize:
  1181                           	callstack 0
  1182                           
  1183 ;; *************** function _INT1_SetInterruptHandler *****************
  1184 ;; Defined at:
  1185 ;;		line 79 in file "mcc_generated_files/ext_int.c"
  1186 ;; Parameters:    Size  Location     Type
  1187 ;;  InterruptHan    2    0[BANK0 ] PTR FTN()void 
  1188 ;;		 -> INT1_DefaultInterruptHandler(1), 
  1189 ;; Auto vars:     Size  Location     Type
  1190 ;;		None
  1191 ;; Return value:  Size  Location     Type
  1192 ;;                  1    wreg      void 
  1193 ;; Registers used:
  1194 ;;		wreg, status,2, status,0
  1195 ;; Tracked objects:
  1196 ;;		On entry : 0/0
  1197 ;;		On exit  : 0/0
  1198 ;;		Unchanged: 0/0
  1199 ;; Data sizes:     COMRAM   BANK0   BANK1   BANK2   BANK3   BANK4   BANK5   BANK6   BANK7
  1200 ;;      Params:         0       2       0       0       0       0       0       0       0
  1201 ;;      Locals:         0       0       0       0       0       0       0       0       0
  1202 ;;      Temps:          0       0       0       0       0       0       0       0       0
  1203 ;;      Totals:         0       2       0       0       0       0       0       0       0
  1204 ;;Total ram usage:        2 bytes
  1205 ;; Hardware stack levels used:    1
  1206 ;; Hardware stack levels required when called:    6
  1207 ;; This function calls:
  1208 ;;		Nothing
  1209 ;; This function is called by:
  1210 ;;		_EXT_INT_Initialize
  1211 ;; This function uses a non-reentrant model
  1212 ;;
  1213                           
  1214                           	psect	text8
  1215  0014FA                     __ptext8:
  1216                           	callstack 0
  1217  0014FA                     _INT1_SetInterruptHandler:
  1218                           	callstack 22
  1219  0014FA                     
  1220                           ;mcc_generated_files/ext_int.c: 80:     INT1_InterruptHandler = InterruptHandler;
  1221  0014FA  C060  F055         	movff	INT1_SetInterruptHandler@InterruptHandler,_INT1_InterruptHandler
  1222  0014FE  C061  F056         	movff	INT1_SetInterruptHandler@InterruptHandler+1,_INT1_InterruptHandler+1
  1223  001502  0012               	return		;funcret
  1224  001504                     __end_of_INT1_SetInterruptHandler:
  1225                           	callstack 0
  1226                           
  1227 ;; *************** function _INT0_SetInterruptHandler *****************
  1228 ;; Defined at:
  1229 ;;		line 53 in file "mcc_generated_files/ext_int.c"
  1230 ;; Parameters:    Size  Location     Type
  1231 ;;  InterruptHan    2    0[BANK0 ] PTR FTN()void 
  1232 ;;		 -> INT0_DefaultInterruptHandler(1), 
  1233 ;; Auto vars:     Size  Location     Type
  1234 ;;		None
  1235 ;; Return value:  Size  Location     Type
  1236 ;;                  1    wreg      void 
  1237 ;; Registers used:
  1238 ;;		wreg, status,2, status,0
  1239 ;; Tracked objects:
  1240 ;;		On entry : 0/0
  1241 ;;		On exit  : 0/0
  1242 ;;		Unchanged: 0/0
  1243 ;; Data sizes:     COMRAM   BANK0   BANK1   BANK2   BANK3   BANK4   BANK5   BANK6   BANK7
  1244 ;;      Params:         0       2       0       0       0       0       0       0       0
  1245 ;;      Locals:         0       0       0       0       0       0       0       0       0
  1246 ;;      Temps:          0       0       0       0       0       0       0       0       0
  1247 ;;      Totals:         0       2       0       0       0       0       0       0       0
  1248 ;;Total ram usage:        2 bytes
  1249 ;; Hardware stack levels used:    1
  1250 ;; Hardware stack levels required when called:    6
  1251 ;; This function calls:
  1252 ;;		Nothing
  1253 ;; This function is called by:
  1254 ;;		_EXT_INT_Initialize
  1255 ;; This function uses a non-reentrant model
  1256 ;;
  1257                           
  1258                           	psect	text9
  1259  001504                     __ptext9:
  1260                           	callstack 0
  1261  001504                     _INT0_SetInterruptHandler:
  1262                           	callstack 22
  1263  001504                     
  1264                           ;mcc_generated_files/ext_int.c: 54:     INT0_InterruptHandler = InterruptHandler;
  1265  001504  C060  F068         	movff	INT0_SetInterruptHandler@InterruptHandler,_INT0_InterruptHandler
  1266  001508  C061  F069         	movff	INT0_SetInterruptHandler@InterruptHandler+1,_INT0_InterruptHandler+1
  1267  00150C  0012               	return		;funcret
  1268  00150E                     __end_of_INT0_SetInterruptHandler:
  1269                           	callstack 0
  1270                           
  1271 ;; *************** function _INTERRUPT_InterruptManager *****************
  1272 ;; Defined at:
  1273 ;;		line 58 in file "mcc_generated_files/interrupt_manager.c"
  1274 ;; Parameters:    Size  Location     Type
  1275 ;;		None
  1276 ;; Auto vars:     Size  Location     Type
  1277 ;;		None
  1278 ;; Return value:  Size  Location     Type
  1279 ;;                  1    wreg      void 
  1280 ;; Registers used:
  1281 ;;		wreg, status,2, status,0, pclath, tosl, prodl, prodh, cstack
  1282 ;; Tracked objects:
  1283 ;;		On entry : 0/0
  1284 ;;		On exit  : 0/0
  1285 ;;		Unchanged: 0/0
  1286 ;; Data sizes:     COMRAM   BANK0   BANK1   BANK2   BANK3   BANK4   BANK5   BANK6   BANK7
  1287 ;;      Params:         0       0       0       0       0       0       0       0       0
  1288 ;;      Locals:         0       0       0       0       0       0       0       0       0
  1289 ;;      Temps:          4       0       0       0       0       0       0       0       0
  1290 ;;      Totals:         4       0       0       0       0       0       0       0       0
  1291 ;;Total ram usage:        4 bytes
  1292 ;; Hardware stack levels used:    1
  1293 ;; Hardware stack levels required when called:    5
  1294 ;; This function calls:
  1295 ;;		_INT0_ISR
  1296 ;;		_INT1_ISR
  1297 ;; This function is called by:
  1298 ;;		Interrupt level 2
  1299 ;; This function uses a non-reentrant model
  1300 ;;
  1301                           
  1302                           	psect	intcode
  1303  000008                     __pintcode:
  1304                           	callstack 0
  1305  000008                     _INTERRUPT_InterruptManager:
  1306                           	callstack 22
  1307                           
  1308                           ;incstack = 0
  1309  000008  8259               	bsf	int$flags,1,c	;set compiler interrupt flag (level 2)
  1310  00000A  CFFA F049          	movff	pclath,??_INTERRUPT_InterruptManager
  1311  00000E  CFFB F04A          	movff	pclatu,??_INTERRUPT_InterruptManager+1
  1312  000012  CFF3 F04B          	movff	prodl,??_INTERRUPT_InterruptManager+2
  1313  000016  CFF4 F04C          	movff	prodh,??_INTERRUPT_InterruptManager+3
  1314  00001A  A8F2               	btfss	242,4,c	;volatile
  1315  00001C  EF12  F000         	goto	i2u216_41
  1316  000020  EF14  F000         	goto	i2u216_40
  1317  000024                     i2u216_41:
  1318  000024  EF1F  F000         	goto	i2l137
  1319  000028                     i2u216_40:
  1320  000028  A2F2               	btfss	242,1,c	;volatile
  1321  00002A  EF19  F000         	goto	i2u217_41
  1322  00002E  EF1B  F000         	goto	i2u217_40
  1323  000032                     i2u217_41:
  1324  000032  EF1F  F000         	goto	i2l137
  1325  000036                     i2u217_40:
  1326  000036  EC90  F00A         	call	_INT0_ISR	;wreg free
  1327  00003A  EF2F  F000         	goto	i2l141
  1328  00003E                     i2l137:
  1329  00003E  A6F0               	btfss	240,3,c	;volatile
  1330  000040  EF24  F000         	goto	i2u218_41
  1331  000044  EF26  F000         	goto	i2u218_40
  1332  000048                     i2u218_41:
  1333  000048  EF2F  F000         	goto	i2l141
  1334  00004C                     i2u218_40:
  1335  00004C  A0F0               	btfss	240,0,c	;volatile
  1336  00004E  EF2B  F000         	goto	i2u219_41
  1337  000052  EF2D  F000         	goto	i2u219_40
  1338  000056                     i2u219_41:
  1339  000056  EF2F  F000         	goto	i2l141
  1340  00005A                     i2u219_40:
  1341  00005A  EC8C  F00A         	call	_INT1_ISR	;wreg free
  1342  00005E                     i2l141:
  1343  00005E  C04C  FFF4         	movff	??_INTERRUPT_InterruptManager+3,prodh
  1344  000062  C04B  FFF3         	movff	??_INTERRUPT_InterruptManager+2,prodl
  1345  000066  C04A  FFFB         	movff	??_INTERRUPT_InterruptManager+1,pclatu
  1346  00006A  C049  FFFA         	movff	??_INTERRUPT_InterruptManager,pclath
  1347  00006E  9259               	bcf	int$flags,1,c	;clear compiler interrupt flag (level 2)
  1348  000070  0011               	retfie		f
  1349  000072                     __end_of_INTERRUPT_InterruptManager:
  1350                           	callstack 0
  1351                           
  1352 ;; *************** function _INT1_ISR *****************
  1353 ;; Defined at:
  1354 ;;		line 61 in file "mcc_generated_files/ext_int.c"
  1355 ;; Parameters:    Size  Location     Type
  1356 ;;		None
  1357 ;; Auto vars:     Size  Location     Type
  1358 ;;		None
  1359 ;; Return value:  Size  Location     Type
  1360 ;;                  1    wreg      void 
  1361 ;; Registers used:
  1362 ;;		wreg, status,2, status,0, pclath, tosl, prodl, prodh, cstack
  1363 ;; Tracked objects:
  1364 ;;		On entry : 0/0
  1365 ;;		On exit  : 0/0
  1366 ;;		Unchanged: 0/0
  1367 ;; Data sizes:     COMRAM   BANK0   BANK1   BANK2   BANK3   BANK4   BANK5   BANK6   BANK7
  1368 ;;      Params:         0       0       0       0       0       0       0       0       0
  1369 ;;      Locals:         0       0       0       0       0       0       0       0       0
  1370 ;;      Temps:          0       0       0       0       0       0       0       0       0
  1371 ;;      Totals:         0       0       0       0       0       0       0       0       0
  1372 ;;Total ram usage:        0 bytes
  1373 ;; Hardware stack levels used:    1
  1374 ;; Hardware stack levels required when called:    4
  1375 ;; This function calls:
  1376 ;;		_INT1_CallBack
  1377 ;; This function is called by:
  1378 ;;		_INTERRUPT_InterruptManager
  1379 ;; This function uses a non-reentrant model
  1380 ;;
  1381                           
  1382                           	psect	text11
  1383  001518                     __ptext11:
  1384                           	callstack 0
  1385  001518                     _INT1_ISR:
  1386                           	callstack 22
  1387  001518                     
  1388                           ;mcc_generated_files/ext_int.c: 63:     (INTCON3bits.INT1IF = 0);
  1389  001518  90F0               	bcf	240,0,c	;volatile
  1390  00151A                     
  1391                           ;mcc_generated_files/ext_int.c: 66:     INT1_CallBack();
  1392  00151A  ECF5  F009         	call	_INT1_CallBack	;wreg free
  1393  00151E  0012               	return		;funcret
  1394  001520                     __end_of_INT1_ISR:
  1395                           	callstack 0
  1396                           
  1397 ;; *************** function _INT1_CallBack *****************
  1398 ;; Defined at:
  1399 ;;		line 70 in file "mcc_generated_files/ext_int.c"
  1400 ;; Parameters:    Size  Location     Type
  1401 ;;		None
  1402 ;; Auto vars:     Size  Location     Type
  1403 ;;		None
  1404 ;; Return value:  Size  Location     Type
  1405 ;;                  1    wreg      void 
  1406 ;; Registers used:
  1407 ;;		wreg, status,2, status,0, pclath, tosl, prodl, prodh, cstack
  1408 ;; Tracked objects:
  1409 ;;		On entry : 0/0
  1410 ;;		On exit  : 0/0
  1411 ;;		Unchanged: 0/0
  1412 ;; Data sizes:     COMRAM   BANK0   BANK1   BANK2   BANK3   BANK4   BANK5   BANK6   BANK7
  1413 ;;      Params:         0       0       0       0       0       0       0       0       0
  1414 ;;      Locals:         0       0       0       0       0       0       0       0       0
  1415 ;;      Temps:          0       0       0       0       0       0       0       0       0
  1416 ;;      Totals:         0       0       0       0       0       0       0       0       0
  1417 ;;Total ram usage:        0 bytes
  1418 ;; Hardware stack levels used:    1
  1419 ;; Hardware stack levels required when called:    3
  1420 ;; This function calls:
  1421 ;;		Absolute function
  1422 ;;		_INT1_DefaultInterruptHandler
  1423 ;; This function is called by:
  1424 ;;		_INT1_ISR
  1425 ;; This function uses a non-reentrant model
  1426 ;;
  1427                           
  1428                           	psect	text12
  1429  0013EA                     __ptext12:
  1430                           	callstack 0
  1431  0013EA                     _INT1_CallBack:
  1432                           	callstack 22
  1433  0013EA                     
  1434                           ;mcc_generated_files/ext_int.c: 73:     if(INT1_InterruptHandler)
  1435  0013EA  5055               	movf	_INT1_InterruptHandler^0,w,c
  1436  0013EC  1056               	iorwf	(_INT1_InterruptHandler+1)^0,w,c
  1437  0013EE  B4D8               	btfsc	status,2,c
  1438  0013F0  EFFC  F009         	goto	i2u214_41
  1439  0013F4  EFFE  F009         	goto	i2u214_40
  1440  0013F8                     i2u214_41:
  1441  0013F8  EF0B  F00A         	goto	i2l193
  1442  0013FC                     i2u214_40:
  1443  0013FC                     
  1444                           ;mcc_generated_files/ext_int.c: 74:     {;mcc_generated_files/ext_int.c: 75:         INT
      +                          1_InterruptHandler();
  1445  0013FC  D802               	call	i2u215_48
  1446  0013FE  EF0B  F00A         	goto	i2u215_49
  1447  001402                     i2u215_48:
  1448  001402  0005               	push	
  1449  001404  6EFA               	movwf	pclath,c
  1450  001406  5055               	movf	_INT1_InterruptHandler^0,w,c
  1451  001408  6EFD               	movwf	tosl,c
  1452  00140A  5056               	movf	(_INT1_InterruptHandler+1)^0,w,c
  1453  00140C  6EFE               	movwf	tosh,c
  1454  00140E  50F8               	movf	tblptru,w,c
  1455  001410  6EFF               	movwf	tosu,c
  1456  001412  50FA               	movf	pclath,w,c
  1457  001414  0012               	return		;indir
  1458  001416                     i2u215_49:
  1459  001416                     i2l193:
  1460  001416  0012               	return		;funcret
  1461  001418                     __end_of_INT1_CallBack:
  1462                           	callstack 0
  1463                           
  1464 ;; *************** function _INT1_DefaultInterruptHandler *****************
  1465 ;; Defined at:
  1466 ;;		line 83 in file "mcc_generated_files/ext_int.c"
  1467 ;; Parameters:    Size  Location     Type
  1468 ;;		None
  1469 ;; Auto vars:     Size  Location     Type
  1470 ;;		None
  1471 ;; Return value:  Size  Location     Type
  1472 ;;                  1    wreg      void 
  1473 ;; Registers used:
  1474 ;;		wreg, status,2, status,0, prodl, prodh, cstack
  1475 ;; Tracked objects:
  1476 ;;		On entry : 0/0
  1477 ;;		On exit  : 0/0
  1478 ;;		Unchanged: 0/0
  1479 ;; Data sizes:     COMRAM   BANK0   BANK1   BANK2   BANK3   BANK4   BANK5   BANK6   BANK7
  1480 ;;      Params:         0       0       0       0       0       0       0       0       0
  1481 ;;      Locals:         0       0       0       0       0       0       0       0       0
  1482 ;;      Temps:          0       0       0       0       0       0       0       0       0
  1483 ;;      Totals:         0       0       0       0       0       0       0       0       0
  1484 ;;Total ram usage:        0 bytes
  1485 ;; Hardware stack levels used:    1
  1486 ;; Hardware stack levels required when called:    2
  1487 ;; This function calls:
  1488 ;;		_TMR0_ReadTimer
  1489 ;;		_TMR0_Reload
  1490 ;;		_TMR0_StopTimer
  1491 ;;		___fldiv
  1492 ;;		___flmul
  1493 ;;		___flsub
  1494 ;;		___fltol
  1495 ;;		___lwdiv
  1496 ;;		___wmul
  1497 ;;		___xxtofl
  1498 ;; This function is called by:
  1499 ;;		_EXT_INT_Initialize
  1500 ;;		_INT1_CallBack
  1501 ;; This function uses a non-reentrant model
  1502 ;;
  1503                           
  1504                           	psect	text13
  1505  000EAE                     __ptext13:
  1506                           	callstack 0
  1507  000EAE                     _INT1_DefaultInterruptHandler:
  1508                           	callstack 22
  1509  000EAE                     
  1510                           ;mcc_generated_files/ext_int.c: 84:     TMR0_StopTimer();
  1511  000EAE  EC99  F00A         	call	_TMR0_StopTimer	;wreg free
  1512  000EB2                     
  1513                           ;mcc_generated_files/ext_int.c: 85:     distancia = TMR0_ReadTimer()/58;
  1514  000EB2  0E00               	movlw	0
  1515  000EB4  6E0C               	movwf	(___lwdiv@divisor+1)^0,c
  1516  000EB6  0E3A               	movlw	58
  1517  000EB8  6E0B               	movwf	___lwdiv@divisor^0,c
  1518  000EBA  EC5A  F00A         	call	_TMR0_ReadTimer	;wreg free
  1519  000EBE  C001  F009         	movff	?_TMR0_ReadTimer,___lwdiv@dividend
  1520  000EC2  C002  F00A         	movff	?_TMR0_ReadTimer+1,___lwdiv@dividend+1
  1521  000EC6  EC5F  F009         	call	___lwdiv	;wreg free
  1522  000ECA  C009  F010         	movff	?___lwdiv,___xxtofl@val
  1523  000ECE  C00A  F011         	movff	?___lwdiv+1,___xxtofl@val+1
  1524  000ED2  6A12               	clrf	(___xxtofl@val+2)^0,c
  1525  000ED4  6A13               	clrf	(___xxtofl@val+3)^0,c
  1526  000ED6  0E00               	movlw	0
  1527  000ED8  EC7D  F006         	call	___xxtofl
  1528  000EDC  C010  F04D         	movff	?___xxtofl,_distancia
  1529  000EE0  C011  F04E         	movff	?___xxtofl+1,_distancia+1
  1530  000EE4  C012  F04F         	movff	?___xxtofl+2,_distancia+2
  1531  000EE8  C013  F050         	movff	?___xxtofl+3,_distancia+3
  1532  000EEC                     
  1533                           ;mcc_generated_files/ext_int.c: 86:     decena = distancia/10;
  1534  000EEC  0E00               	movlw	0
  1535  000EEE  6E05               	movwf	___fldiv@a^0,c
  1536  000EF0  0E00               	movlw	0
  1537  000EF2  6E06               	movwf	(___fldiv@a+1)^0,c
  1538  000EF4  0E20               	movlw	32
  1539  000EF6  6E07               	movwf	(___fldiv@a+2)^0,c
  1540  000EF8  0E41               	movlw	65
  1541  000EFA  6E08               	movwf	(___fldiv@a+3)^0,c
  1542  000EFC  C04D  F001         	movff	_distancia,___fldiv@b
  1543  000F00  C04E  F002         	movff	_distancia+1,___fldiv@b+1
  1544  000F04  C04F  F003         	movff	_distancia+2,___fldiv@b+2
  1545  000F08  C050  F004         	movff	_distancia+3,___fldiv@b+3
  1546  000F0C  ECB0  F004         	call	___fldiv	;wreg free
  1547  000F10  C001  F03F         	movff	?___fldiv,___fltol@f1
  1548  000F14  C002  F040         	movff	?___fldiv+1,___fltol@f1+1
  1549  000F18  C003  F041         	movff	?___fldiv+2,___fltol@f1+2
  1550  000F1C  C004  F042         	movff	?___fldiv+3,___fltol@f1+3
  1551  000F20  EC1E  F008         	call	___fltol	;wreg free
  1552  000F24  C03F  F051         	movff	?___fltol,_decena
  1553  000F28  C040  F052         	movff	?___fltol+1,_decena+1
  1554  000F2C                     
  1555                           ;mcc_generated_files/ext_int.c: 87:     unidad = distancia-(decena*10);
  1556  000F2C  C051  F001         	movff	_decena,___wmul@multiplier
  1557  000F30  C052  F002         	movff	_decena+1,___wmul@multiplier+1
  1558  000F34  0E00               	movlw	0
  1559  000F36  6E04               	movwf	(___wmul@multiplicand+1)^0,c
  1560  000F38  0E0A               	movlw	10
  1561  000F3A  6E03               	movwf	___wmul@multiplicand^0,c
  1562  000F3C  EC36  F00A         	call	___wmul	;wreg free
  1563  000F40  C001  F010         	movff	?___wmul,___xxtofl@val
  1564  000F44  C002  F011         	movff	?___wmul+1,___xxtofl@val+1
  1565  000F48  0E00               	movlw	0
  1566  000F4A  BE11               	btfsc	(___xxtofl@val+1)^0,7,c
  1567  000F4C  0EFF               	movlw	-1
  1568  000F4E  6E12               	movwf	(___xxtofl@val+2)^0,c
  1569  000F50  6E13               	movwf	(___xxtofl@val+3)^0,c
  1570  000F52  0E01               	movlw	1
  1571  000F54  EC7D  F006         	call	___xxtofl
  1572  000F58  C010  F022         	movff	?___xxtofl,___flsub@a
  1573  000F5C  C011  F023         	movff	?___xxtofl+1,___flsub@a+1
  1574  000F60  C012  F024         	movff	?___xxtofl+2,___flsub@a+2
  1575  000F64  C013  F025         	movff	?___xxtofl+3,___flsub@a+3
  1576  000F68  C04D  F01E         	movff	_distancia,___flsub@b
  1577  000F6C  C04E  F01F         	movff	_distancia+1,___flsub@b+1
  1578  000F70  C04F  F020         	movff	_distancia+2,___flsub@b+2
  1579  000F74  C050  F021         	movff	_distancia+3,___flsub@b+3
  1580  000F78  EC99  F009         	call	___flsub	;wreg free
  1581  000F7C  C01E  F03F         	movff	?___flsub,___fltol@f1
  1582  000F80  C01F  F040         	movff	?___flsub+1,___fltol@f1+1
  1583  000F84  C020  F041         	movff	?___flsub+2,___fltol@f1+2
  1584  000F88  C021  F042         	movff	?___flsub+3,___fltol@f1+3
  1585  000F8C  EC1E  F008         	call	___fltol	;wreg free
  1586  000F90  C03F  F053         	movff	?___fltol,_unidad
  1587  000F94  C040  F054         	movff	?___fltol+1,_unidad+1
  1588  000F98                     
  1589                           ;mcc_generated_files/ext_int.c: 88:     decimal = (distancia-(float)(decena*10+unidad))*
      +                          10;
  1590  000F98  0E00               	movlw	0
  1591  000F9A  6E2A               	movwf	___flmul@a^0,c
  1592  000F9C  0E00               	movlw	0
  1593  000F9E  6E2B               	movwf	(___flmul@a+1)^0,c
  1594  000FA0  0E20               	movlw	32
  1595  000FA2  6E2C               	movwf	(___flmul@a+2)^0,c
  1596  000FA4  0E41               	movlw	65
  1597  000FA6  6E2D               	movwf	(___flmul@a+3)^0,c
  1598  000FA8  C051  F001         	movff	_decena,___wmul@multiplier
  1599  000FAC  C052  F002         	movff	_decena+1,___wmul@multiplier+1
  1600  000FB0  0E00               	movlw	0
  1601  000FB2  6E04               	movwf	(___wmul@multiplicand+1)^0,c
  1602  000FB4  0E0A               	movlw	10
  1603  000FB6  6E03               	movwf	___wmul@multiplicand^0,c
  1604  000FB8  EC36  F00A         	call	___wmul	;wreg free
  1605  000FBC  5053               	movf	_unidad^0,w,c
  1606  000FBE  2601               	addwf	?___wmul^0,f,c
  1607  000FC0  5054               	movf	(_unidad+1)^0,w,c
  1608  000FC2  2202               	addwfc	(?___wmul+1)^0,f,c
  1609  000FC4  C001  F010         	movff	?___wmul,___xxtofl@val
  1610  000FC8  C002  F011         	movff	?___wmul+1,___xxtofl@val+1
  1611  000FCC  0E00               	movlw	0
  1612  000FCE  BE11               	btfsc	(___xxtofl@val+1)^0,7,c
  1613  000FD0  0EFF               	movlw	-1
  1614  000FD2  6E12               	movwf	(___xxtofl@val+2)^0,c
  1615  000FD4  6E13               	movwf	(___xxtofl@val+3)^0,c
  1616  000FD6  0E01               	movlw	1
  1617  000FD8  EC7D  F006         	call	___xxtofl
  1618  000FDC  C010  F022         	movff	?___xxtofl,___flsub@a
  1619  000FE0  C011  F023         	movff	?___xxtofl+1,___flsub@a+1
  1620  000FE4  C012  F024         	movff	?___xxtofl+2,___flsub@a+2
  1621  000FE8  C013  F025         	movff	?___xxtofl+3,___flsub@a+3
  1622  000FEC  C04D  F01E         	movff	_distancia,___flsub@b
  1623  000FF0  C04E  F01F         	movff	_distancia+1,___flsub@b+1
  1624  000FF4  C04F  F020         	movff	_distancia+2,___flsub@b+2
  1625  000FF8  C050  F021         	movff	_distancia+3,___flsub@b+3
  1626  000FFC  EC99  F009         	call	___flsub	;wreg free
  1627  001000  C01E  F026         	movff	?___flsub,___flmul@b
  1628  001004  C01F  F027         	movff	?___flsub+1,___flmul@b+1
  1629  001008  C020  F028         	movff	?___flsub+2,___flmul@b+2
  1630  00100C  C021  F029         	movff	?___flsub+3,___flmul@b+3
  1631  001010  EC9B  F002         	call	___flmul	;wreg free
  1632  001014  C026  F03F         	movff	?___flmul,___fltol@f1
  1633  001018  C027  F040         	movff	?___flmul+1,___fltol@f1+1
  1634  00101C  C028  F041         	movff	?___flmul+2,___fltol@f1+2
  1635  001020  C029  F042         	movff	?___flmul+3,___fltol@f1+3
  1636  001024  EC1E  F008         	call	___fltol	;wreg free
  1637  001028  C03F  F065         	movff	?___fltol,_decimal
  1638  00102C  C040  F066         	movff	?___fltol+1,_decimal+1
  1639  001030                     
  1640                           ;mcc_generated_files/ext_int.c: 89:     TMR0_Reload();
  1641  001030  EC87  F00A         	call	_TMR0_Reload	;wreg free
  1642                           
  1643                           ;mcc_generated_files/ext_int.c: 90:     enabletrigger = 1;
  1644  001034  0E01               	movlw	1
  1645  001036  0100               	movlb	0	; () banked
  1646  001038  6F67               	movwf	_enabletrigger& (0+255),b
  1647  00103A                     
  1648                           ; BSR set to: 0
  1649  00103A  0012               	return		;funcret
  1650  00103C                     __end_of_INT1_DefaultInterruptHandler:
  1651                           	callstack 0
  1652                           
  1653 ;; *************** function ___xxtofl *****************
  1654 ;; Defined at:
  1655 ;;		line 10 in file "C:\Program Files\Microchip\xc8\v2.30\pic\sources\c99\common\xxtofl.c"
  1656 ;; Parameters:    Size  Location     Type
  1657 ;;  sign            1    wreg     unsigned char 
  1658 ;;  val             4   15[COMRAM] long 
  1659 ;; Auto vars:     Size  Location     Type
  1660 ;;  sign            1   23[COMRAM] unsigned char 
  1661 ;;  arg             4   25[COMRAM] unsigned long 
  1662 ;;  exp             1   24[COMRAM] unsigned char 
  1663 ;; Return value:  Size  Location     Type
  1664 ;;                  4   15[COMRAM] unsigned char 
  1665 ;; Registers used:
  1666 ;;		wreg, status,2, status,0
  1667 ;; Tracked objects:
  1668 ;;		On entry : 0/0
  1669 ;;		On exit  : 0/0
  1670 ;;		Unchanged: 0/0
  1671 ;; Data sizes:     COMRAM   BANK0   BANK1   BANK2   BANK3   BANK4   BANK5   BANK6   BANK7
  1672 ;;      Params:         4       0       0       0       0       0       0       0       0
  1673 ;;      Locals:         6       0       0       0       0       0       0       0       0
  1674 ;;      Temps:          4       0       0       0       0       0       0       0       0
  1675 ;;      Totals:        14       0       0       0       0       0       0       0       0
  1676 ;;Total ram usage:       14 bytes
  1677 ;; Hardware stack levels used:    1
  1678 ;; This function calls:
  1679 ;;		Nothing
  1680 ;; This function is called by:
  1681 ;;		_INT1_DefaultInterruptHandler
  1682 ;; This function uses a non-reentrant model
  1683 ;;
  1684                           
  1685                           	psect	text14
  1686  000CFA                     __ptext14:
  1687                           	callstack 0
  1688  000CFA                     ___xxtofl:
  1689                           	callstack 23
  1690                           
  1691                           ; BSR set to: 0
  1692                           ;incstack = 0
  1693                           ;___xxtofl@sign stored from wreg
  1694  000CFA  6E18               	movwf	___xxtofl@sign^0,c
  1695  000CFC  5018               	movf	___xxtofl@sign^0,w,c
  1696  000CFE  B4D8               	btfsc	status,2,c
  1697  000D00  EF84  F006         	goto	i2u202_41
  1698  000D04  EF86  F006         	goto	i2u202_40
  1699  000D08                     i2u202_41:
  1700  000D08  EFA8  F006         	goto	i2l914
  1701  000D0C                     i2u202_40:
  1702  000D0C  BE13               	btfsc	(___xxtofl@val+3)^0,7,c
  1703  000D0E  EF8D  F006         	goto	i2u203_40
  1704  000D12  EF8B  F006         	goto	i2u203_41
  1705  000D16                     i2u203_41:
  1706  000D16  EFA8  F006         	goto	i2l914
  1707  000D1A                     i2u203_40:
  1708  000D1A  C010  F014         	movff	___xxtofl@val,??___xxtofl
  1709  000D1E  C011  F015         	movff	___xxtofl@val+1,??___xxtofl+1
  1710  000D22  C012  F016         	movff	___xxtofl@val+2,??___xxtofl+2
  1711  000D26  C013  F017         	movff	___xxtofl@val+3,??___xxtofl+3
  1712  000D2A  1E14               	comf	??___xxtofl^0,f,c
  1713  000D2C  1E15               	comf	(??___xxtofl+1)^0,f,c
  1714  000D2E  1E16               	comf	(??___xxtofl+2)^0,f,c
  1715  000D30  1E17               	comf	(??___xxtofl+3)^0,f,c
  1716  000D32  2A14               	incf	??___xxtofl^0,f,c
  1717  000D34  0E00               	movlw	0
  1718  000D36  2215               	addwfc	(??___xxtofl+1)^0,f,c
  1719  000D38  2216               	addwfc	(??___xxtofl+2)^0,f,c
  1720  000D3A  2217               	addwfc	(??___xxtofl+3)^0,f,c
  1721  000D3C  C014  F01A         	movff	??___xxtofl,___xxtofl@arg
  1722  000D40  C015  F01B         	movff	??___xxtofl+1,___xxtofl@arg+1
  1723  000D44  C016  F01C         	movff	??___xxtofl+2,___xxtofl@arg+2
  1724  000D48  C017  F01D         	movff	??___xxtofl+3,___xxtofl@arg+3
  1725  000D4C  EFB0  F006         	goto	i2l2308
  1726  000D50                     i2l914:
  1727  000D50  C010  F01A         	movff	___xxtofl@val,___xxtofl@arg
  1728  000D54  C011  F01B         	movff	___xxtofl@val+1,___xxtofl@arg+1
  1729  000D58  C012  F01C         	movff	___xxtofl@val+2,___xxtofl@arg+2
  1730  000D5C  C013  F01D         	movff	___xxtofl@val+3,___xxtofl@arg+3
  1731  000D60                     i2l2308:
  1732  000D60  5010               	movf	___xxtofl@val^0,w,c
  1733  000D62  1011               	iorwf	(___xxtofl@val+1)^0,w,c
  1734  000D64  1012               	iorwf	(___xxtofl@val+2)^0,w,c
  1735  000D66  1013               	iorwf	(___xxtofl@val+3)^0,w,c
  1736  000D68  A4D8               	btfss	status,2,c
  1737  000D6A  EFB9  F006         	goto	i2u204_41
  1738  000D6E  EFBB  F006         	goto	i2u204_40
  1739  000D72                     i2u204_41:
  1740  000D72  EFC5  F006         	goto	i2l2314
  1741  000D76                     i2u204_40:
  1742  000D76  0E00               	movlw	0
  1743  000D78  6E10               	movwf	?___xxtofl^0,c
  1744  000D7A  0E00               	movlw	0
  1745  000D7C  6E11               	movwf	(?___xxtofl+1)^0,c
  1746  000D7E  0E00               	movlw	0
  1747  000D80  6E12               	movwf	(?___xxtofl+2)^0,c
  1748  000D82  0E00               	movlw	0
  1749  000D84  6E13               	movwf	(?___xxtofl+3)^0,c
  1750  000D86  EF56  F007         	goto	i2l917
  1751  000D8A                     i2l2314:
  1752  000D8A  0E96               	movlw	150
  1753  000D8C  6E19               	movwf	___xxtofl@exp^0,c
  1754  000D8E  EFCF  F006         	goto	i2l2318
  1755  000D92                     i2l2316:
  1756  000D92  2A19               	incf	___xxtofl@exp^0,f,c
  1757  000D94  90D8               	bcf	status,0,c
  1758  000D96  321D               	rrcf	(___xxtofl@arg+3)^0,f,c
  1759  000D98  321C               	rrcf	(___xxtofl@arg+2)^0,f,c
  1760  000D9A  321B               	rrcf	(___xxtofl@arg+1)^0,f,c
  1761  000D9C  321A               	rrcf	___xxtofl@arg^0,f,c
  1762  000D9E                     i2l2318:
  1763  000D9E  0E00               	movlw	0
  1764  000DA0  141A               	andwf	___xxtofl@arg^0,w,c
  1765  000DA2  6E14               	movwf	??___xxtofl^0,c
  1766  000DA4  0E00               	movlw	0
  1767  000DA6  141B               	andwf	(___xxtofl@arg+1)^0,w,c
  1768  000DA8  6E15               	movwf	(??___xxtofl+1)^0,c
  1769  000DAA  0E00               	movlw	0
  1770  000DAC  141C               	andwf	(___xxtofl@arg+2)^0,w,c
  1771  000DAE  6E16               	movwf	(??___xxtofl+2)^0,c
  1772  000DB0  0EFE               	movlw	254
  1773  000DB2  141D               	andwf	(___xxtofl@arg+3)^0,w,c
  1774  000DB4  6E17               	movwf	(??___xxtofl+3)^0,c
  1775  000DB6  5014               	movf	??___xxtofl^0,w,c
  1776  000DB8  1015               	iorwf	(??___xxtofl+1)^0,w,c
  1777  000DBA  1016               	iorwf	(??___xxtofl+2)^0,w,c
  1778  000DBC  1017               	iorwf	(??___xxtofl+3)^0,w,c
  1779  000DBE  A4D8               	btfss	status,2,c
  1780  000DC0  EFE4  F006         	goto	i2u205_41
  1781  000DC4  EFE6  F006         	goto	i2u205_40
  1782  000DC8                     i2u205_41:
  1783  000DC8  EFC9  F006         	goto	i2l2316
  1784  000DCC                     i2u205_40:
  1785  000DCC  EFF4  F006         	goto	i2l921
  1786  000DD0                     i2l2320:
  1787  000DD0  2A19               	incf	___xxtofl@exp^0,f,c
  1788  000DD2  0E01               	movlw	1
  1789  000DD4  261A               	addwf	___xxtofl@arg^0,f,c
  1790  000DD6  0E00               	movlw	0
  1791  000DD8  221B               	addwfc	(___xxtofl@arg+1)^0,f,c
  1792  000DDA  221C               	addwfc	(___xxtofl@arg+2)^0,f,c
  1793  000DDC  221D               	addwfc	(___xxtofl@arg+3)^0,f,c
  1794  000DDE  90D8               	bcf	status,0,c
  1795  000DE0  321D               	rrcf	(___xxtofl@arg+3)^0,f,c
  1796  000DE2  321C               	rrcf	(___xxtofl@arg+2)^0,f,c
  1797  000DE4  321B               	rrcf	(___xxtofl@arg+1)^0,f,c
  1798  000DE6  321A               	rrcf	___xxtofl@arg^0,f,c
  1799  000DE8                     i2l921:
  1800  000DE8  0E00               	movlw	0
  1801  000DEA  141A               	andwf	___xxtofl@arg^0,w,c
  1802  000DEC  6E14               	movwf	??___xxtofl^0,c
  1803  000DEE  0E00               	movlw	0
  1804  000DF0  141B               	andwf	(___xxtofl@arg+1)^0,w,c
  1805  000DF2  6E15               	movwf	(??___xxtofl+1)^0,c
  1806  000DF4  0E00               	movlw	0
  1807  000DF6  141C               	andwf	(___xxtofl@arg+2)^0,w,c
  1808  000DF8  6E16               	movwf	(??___xxtofl+2)^0,c
  1809  000DFA  0EFF               	movlw	255
  1810  000DFC  141D               	andwf	(___xxtofl@arg+3)^0,w,c
  1811  000DFE  6E17               	movwf	(??___xxtofl+3)^0,c
  1812  000E00  5014               	movf	??___xxtofl^0,w,c
  1813  000E02  1015               	iorwf	(??___xxtofl+1)^0,w,c
  1814  000E04  1016               	iorwf	(??___xxtofl+2)^0,w,c
  1815  000E06  1017               	iorwf	(??___xxtofl+3)^0,w,c
  1816  000E08  A4D8               	btfss	status,2,c
  1817  000E0A  EF09  F007         	goto	i2u206_41
  1818  000E0E  EF0B  F007         	goto	i2u206_40
  1819  000E12                     i2u206_41:
  1820  000E12  EFE8  F006         	goto	i2l2320
  1821  000E16                     i2u206_40:
  1822  000E16  EF13  F007         	goto	i2l2328
  1823  000E1A                     i2l2326:
  1824  000E1A  0619               	decf	___xxtofl@exp^0,f,c
  1825  000E1C  90D8               	bcf	status,0,c
  1826  000E1E  361A               	rlcf	___xxtofl@arg^0,f,c
  1827  000E20  361B               	rlcf	(___xxtofl@arg+1)^0,f,c
  1828  000E22  361C               	rlcf	(___xxtofl@arg+2)^0,f,c
  1829  000E24  361D               	rlcf	(___xxtofl@arg+3)^0,f,c
  1830  000E26                     i2l2328:
  1831  000E26  BE1C               	btfsc	(___xxtofl@arg+2)^0,7,c
  1832  000E28  EF18  F007         	goto	i2u207_41
  1833  000E2C  EF1A  F007         	goto	i2u207_40
  1834  000E30                     i2u207_41:
  1835  000E30  EF22  F007         	goto	i2l928
  1836  000E34                     i2u207_40:
  1837  000E34  0E02               	movlw	2
  1838  000E36  6019               	cpfslt	___xxtofl@exp^0,c
  1839  000E38  EF20  F007         	goto	i2u208_41
  1840  000E3C  EF22  F007         	goto	i2u208_40
  1841  000E40                     i2u208_41:
  1842  000E40  EF0D  F007         	goto	i2l2326
  1843  000E44                     i2u208_40:
  1844  000E44                     i2l928:
  1845  000E44  B019               	btfsc	___xxtofl@exp^0,0,c
  1846  000E46  EF27  F007         	goto	i2u209_41
  1847  000E4A  EF29  F007         	goto	i2u209_40
  1848  000E4E                     i2u209_41:
  1849  000E4E  EF2A  F007         	goto	i2l2334
  1850  000E52                     i2u209_40:
  1851  000E52  9E1C               	bcf	(___xxtofl@arg+2)^0,7,c
  1852  000E54                     i2l2334:
  1853  000E54  90D8               	bcf	status,0,c
  1854  000E56  3219               	rrcf	___xxtofl@exp^0,f,c
  1855  000E58  C019  F014         	movff	___xxtofl@exp,??___xxtofl
  1856  000E5C  6A15               	clrf	(??___xxtofl+1)^0,c
  1857  000E5E  6A16               	clrf	(??___xxtofl+2)^0,c
  1858  000E60  6A17               	clrf	(??___xxtofl+3)^0,c
  1859  000E62  C014  F017         	movff	??___xxtofl,??___xxtofl+3
  1860  000E66  6A16               	clrf	(??___xxtofl+2)^0,c
  1861  000E68  6A15               	clrf	(??___xxtofl+1)^0,c
  1862  000E6A  6A14               	clrf	??___xxtofl^0,c
  1863  000E6C  5014               	movf	??___xxtofl^0,w,c
  1864  000E6E  121A               	iorwf	___xxtofl@arg^0,f,c
  1865  000E70  5015               	movf	(??___xxtofl+1)^0,w,c
  1866  000E72  121B               	iorwf	(___xxtofl@arg+1)^0,f,c
  1867  000E74  5016               	movf	(??___xxtofl+2)^0,w,c
  1868  000E76  121C               	iorwf	(___xxtofl@arg+2)^0,f,c
  1869  000E78  5017               	movf	(??___xxtofl+3)^0,w,c
  1870  000E7A  121D               	iorwf	(___xxtofl@arg+3)^0,f,c
  1871  000E7C  5018               	movf	___xxtofl@sign^0,w,c
  1872  000E7E  B4D8               	btfsc	status,2,c
  1873  000E80  EF44  F007         	goto	i2u210_41
  1874  000E84  EF46  F007         	goto	i2u210_40
  1875  000E88                     i2u210_41:
  1876  000E88  EF4E  F007         	goto	i2l2344
  1877  000E8C                     i2u210_40:
  1878  000E8C  BE13               	btfsc	(___xxtofl@val+3)^0,7,c
  1879  000E8E  EF4D  F007         	goto	i2u211_40
  1880  000E92  EF4B  F007         	goto	i2u211_41
  1881  000E96                     i2u211_41:
  1882  000E96  EF4E  F007         	goto	i2l2344
  1883  000E9A                     i2u211_40:
  1884  000E9A  8E1D               	bsf	(___xxtofl@arg+3)^0,7,c
  1885  000E9C                     i2l2344:
  1886  000E9C  C01A  F010         	movff	___xxtofl@arg,?___xxtofl
  1887  000EA0  C01B  F011         	movff	___xxtofl@arg+1,?___xxtofl+1
  1888  000EA4  C01C  F012         	movff	___xxtofl@arg+2,?___xxtofl+2
  1889  000EA8  C01D  F013         	movff	___xxtofl@arg+3,?___xxtofl+3
  1890  000EAC                     i2l917:
  1891  000EAC  0012               	return		;funcret
  1892  000EAE                     __end_of___xxtofl:
  1893                           	callstack 0
  1894                           
  1895 ;; *************** function ___wmul *****************
  1896 ;; Defined at:
  1897 ;;		line 15 in file "C:\Program Files\Microchip\xc8\v2.30\pic\sources\c99\common\Umul16.c"
  1898 ;; Parameters:    Size  Location     Type
  1899 ;;  multiplier      2    0[COMRAM] unsigned int 
  1900 ;;  multiplicand    2    2[COMRAM] unsigned int 
  1901 ;; Auto vars:     Size  Location     Type
  1902 ;;  product         2    4[COMRAM] unsigned int 
  1903 ;; Return value:  Size  Location     Type
  1904 ;;                  2    0[COMRAM] unsigned int 
  1905 ;; Registers used:
  1906 ;;		wreg, status,2, status,0, prodl, prodh
  1907 ;; Tracked objects:
  1908 ;;		On entry : 0/0
  1909 ;;		On exit  : 0/0
  1910 ;;		Unchanged: 0/0
  1911 ;; Data sizes:     COMRAM   BANK0   BANK1   BANK2   BANK3   BANK4   BANK5   BANK6   BANK7
  1912 ;;      Params:         4       0       0       0       0       0       0       0       0
  1913 ;;      Locals:         2       0       0       0       0       0       0       0       0
  1914 ;;      Temps:          0       0       0       0       0       0       0       0       0
  1915 ;;      Totals:         6       0       0       0       0       0       0       0       0
  1916 ;;Total ram usage:        6 bytes
  1917 ;; Hardware stack levels used:    1
  1918 ;; This function calls:
  1919 ;;		Nothing
  1920 ;; This function is called by:
  1921 ;;		_INT1_DefaultInterruptHandler
  1922 ;; This function uses a non-reentrant model
  1923 ;;
  1924                           
  1925                           	psect	text15
  1926  00146C                     __ptext15:
  1927                           	callstack 0
  1928  00146C                     ___wmul:
  1929                           	callstack 23
  1930  00146C  5001               	movf	___wmul@multiplier^0,w,c
  1931  00146E  0203               	mulwf	___wmul@multiplicand^0,c
  1932  001470  CFF3 F005          	movff	prodl,___wmul@product
  1933  001474  CFF4 F006          	movff	prodh,___wmul@product+1
  1934  001478  5001               	movf	___wmul@multiplier^0,w,c
  1935  00147A  0204               	mulwf	(___wmul@multiplicand+1)^0,c
  1936  00147C  50F3               	movf	243,w,c
  1937  00147E  2606               	addwf	(___wmul@product+1)^0,f,c
  1938  001480  5002               	movf	(___wmul@multiplier+1)^0,w,c
  1939  001482  0203               	mulwf	___wmul@multiplicand^0,c
  1940  001484  50F3               	movf	243,w,c
  1941  001486  2606               	addwf	(___wmul@product+1)^0,f,c
  1942  001488  C005  F001         	movff	___wmul@product,?___wmul
  1943  00148C  C006  F002         	movff	___wmul@product+1,?___wmul+1
  1944  001490  0012               	return		;funcret
  1945  001492                     __end_of___wmul:
  1946                           	callstack 0
  1947                           
  1948 ;; *************** function ___lwdiv *****************
  1949 ;; Defined at:
  1950 ;;		line 7 in file "C:\Program Files\Microchip\xc8\v2.30\pic\sources\c99\common\lwdiv.c"
  1951 ;; Parameters:    Size  Location     Type
  1952 ;;  dividend        2    8[COMRAM] unsigned int 
  1953 ;;  divisor         2   10[COMRAM] unsigned int 
  1954 ;; Auto vars:     Size  Location     Type
  1955 ;;  quotient        2   12[COMRAM] unsigned int 
  1956 ;;  counter         1   14[COMRAM] unsigned char 
  1957 ;; Return value:  Size  Location     Type
  1958 ;;                  2    8[COMRAM] unsigned int 
  1959 ;; Registers used:
  1960 ;;		wreg, status,2, status,0
  1961 ;; Tracked objects:
  1962 ;;		On entry : 0/0
  1963 ;;		On exit  : 0/0
  1964 ;;		Unchanged: 0/0
  1965 ;; Data sizes:     COMRAM   BANK0   BANK1   BANK2   BANK3   BANK4   BANK5   BANK6   BANK7
  1966 ;;      Params:         4       0       0       0       0       0       0       0       0
  1967 ;;      Locals:         3       0       0       0       0       0       0       0       0
  1968 ;;      Temps:          0       0       0       0       0       0       0       0       0
  1969 ;;      Totals:         7       0       0       0       0       0       0       0       0
  1970 ;;Total ram usage:        7 bytes
  1971 ;; Hardware stack levels used:    1
  1972 ;; This function calls:
  1973 ;;		Nothing
  1974 ;; This function is called by:
  1975 ;;		_INT1_DefaultInterruptHandler
  1976 ;; This function uses a non-reentrant model
  1977 ;;
  1978                           
  1979                           	psect	text16
  1980  0012BE                     __ptext16:
  1981                           	callstack 0
  1982  0012BE                     ___lwdiv:
  1983                           	callstack 23
  1984  0012BE  0E00               	movlw	0
  1985  0012C0  6E0E               	movwf	(___lwdiv@quotient+1)^0,c
  1986  0012C2  0E00               	movlw	0
  1987  0012C4  6E0D               	movwf	___lwdiv@quotient^0,c
  1988  0012C6  500B               	movf	___lwdiv@divisor^0,w,c
  1989  0012C8  100C               	iorwf	(___lwdiv@divisor+1)^0,w,c
  1990  0012CA  B4D8               	btfsc	status,2,c
  1991  0012CC  EF6A  F009         	goto	i2u199_41
  1992  0012D0  EF6C  F009         	goto	i2u199_40
  1993  0012D4                     i2u199_41:
  1994  0012D4  EF94  F009         	goto	i2l750
  1995  0012D8                     i2u199_40:
  1996  0012D8  0E01               	movlw	1
  1997  0012DA  6E0F               	movwf	___lwdiv@counter^0,c
  1998  0012DC  EF74  F009         	goto	i2l2288
  1999  0012E0                     i2l2286:
  2000  0012E0  90D8               	bcf	status,0,c
  2001  0012E2  360B               	rlcf	___lwdiv@divisor^0,f,c
  2002  0012E4  360C               	rlcf	(___lwdiv@divisor+1)^0,f,c
  2003  0012E6  2A0F               	incf	___lwdiv@counter^0,f,c
  2004  0012E8                     i2l2288:
  2005  0012E8  AE0C               	btfss	(___lwdiv@divisor+1)^0,7,c
  2006  0012EA  EF79  F009         	goto	i2u200_41
  2007  0012EE  EF7B  F009         	goto	i2u200_40
  2008  0012F2                     i2u200_41:
  2009  0012F2  EF70  F009         	goto	i2l2286
  2010  0012F6                     i2u200_40:
  2011  0012F6                     i2l2290:
  2012  0012F6  90D8               	bcf	status,0,c
  2013  0012F8  360D               	rlcf	___lwdiv@quotient^0,f,c
  2014  0012FA  360E               	rlcf	(___lwdiv@quotient+1)^0,f,c
  2015  0012FC  500B               	movf	___lwdiv@divisor^0,w,c
  2016  0012FE  5C09               	subwf	___lwdiv@dividend^0,w,c
  2017  001300  500C               	movf	(___lwdiv@divisor+1)^0,w,c
  2018  001302  580A               	subwfb	(___lwdiv@dividend+1)^0,w,c
  2019  001304  A0D8               	btfss	status,0,c
  2020  001306  EF87  F009         	goto	i2u201_41
  2021  00130A  EF89  F009         	goto	i2u201_40
  2022  00130E                     i2u201_41:
  2023  00130E  EF8E  F009         	goto	i2l2298
  2024  001312                     i2u201_40:
  2025  001312  500B               	movf	___lwdiv@divisor^0,w,c
  2026  001314  5E09               	subwf	___lwdiv@dividend^0,f,c
  2027  001316  500C               	movf	(___lwdiv@divisor+1)^0,w,c
  2028  001318  5A0A               	subwfb	(___lwdiv@dividend+1)^0,f,c
  2029  00131A  800D               	bsf	___lwdiv@quotient^0,0,c
  2030  00131C                     i2l2298:
  2031  00131C  90D8               	bcf	status,0,c
  2032  00131E  320C               	rrcf	(___lwdiv@divisor+1)^0,f,c
  2033  001320  320B               	rrcf	___lwdiv@divisor^0,f,c
  2034  001322  2E0F               	decfsz	___lwdiv@counter^0,f,c
  2035  001324  EF7B  F009         	goto	i2l2290
  2036  001328                     i2l750:
  2037  001328  C00D  F009         	movff	___lwdiv@quotient,?___lwdiv
  2038  00132C  C00E  F00A         	movff	___lwdiv@quotient+1,?___lwdiv+1
  2039  001330  0012               	return		;funcret
  2040  001332                     __end_of___lwdiv:
  2041                           	callstack 0
  2042                           
  2043 ;; *************** function ___fltol *****************
  2044 ;; Defined at:
  2045 ;;		line 43 in file "C:\Program Files\Microchip\xc8\v2.30\pic\sources\c99\common\fltol.c"
  2046 ;; Parameters:    Size  Location     Type
  2047 ;;  f1              4   62[COMRAM] unsigned int 
  2048 ;; Auto vars:     Size  Location     Type
  2049 ;;  exp1            1   71[COMRAM] unsigned char 
  2050 ;;  sign1           1   70[COMRAM] unsigned char 
  2051 ;; Return value:  Size  Location     Type
  2052 ;;                  4   62[COMRAM] long 
  2053 ;; Registers used:
  2054 ;;		wreg, status,2, status,0
  2055 ;; Tracked objects:
  2056 ;;		On entry : 0/0
  2057 ;;		On exit  : 0/0
  2058 ;;		Unchanged: 0/0
  2059 ;; Data sizes:     COMRAM   BANK0   BANK1   BANK2   BANK3   BANK4   BANK5   BANK6   BANK7
  2060 ;;      Params:         4       0       0       0       0       0       0       0       0
  2061 ;;      Locals:         2       0       0       0       0       0       0       0       0
  2062 ;;      Temps:          4       0       0       0       0       0       0       0       0
  2063 ;;      Totals:        10       0       0       0       0       0       0       0       0
  2064 ;;Total ram usage:       10 bytes
  2065 ;; Hardware stack levels used:    1
  2066 ;; This function calls:
  2067 ;;		Nothing
  2068 ;; This function is called by:
  2069 ;;		_INT1_DefaultInterruptHandler
  2070 ;; This function uses a non-reentrant model
  2071 ;;
  2072                           
  2073                           	psect	text17
  2074  00103C                     __ptext17:
  2075                           	callstack 0
  2076  00103C                     ___fltol:
  2077                           	callstack 23
  2078  00103C  3441               	rlcf	(___fltol@f1+2)^0,w,c
  2079  00103E  3442               	rlcf	(___fltol@f1+3)^0,w,c
  2080  001040  6E48               	movwf	___fltol@exp1^0,c
  2081  001042  5048               	movf	___fltol@exp1^0,w,c
  2082  001044  A4D8               	btfss	status,2,c
  2083  001046  EF27  F008         	goto	i2u192_41
  2084  00104A  EF29  F008         	goto	i2u192_40
  2085  00104E                     i2u192_41:
  2086  00104E  EF33  F008         	goto	i2l2242
  2087  001052                     i2u192_40:
  2088  001052                     i2l2238:
  2089  001052  0E00               	movlw	0
  2090  001054  6E3F               	movwf	?___fltol^0,c
  2091  001056  0E00               	movlw	0
  2092  001058  6E40               	movwf	(?___fltol+1)^0,c
  2093  00105A  0E00               	movlw	0
  2094  00105C  6E41               	movwf	(?___fltol+2)^0,c
  2095  00105E  0E00               	movlw	0
  2096  001060  6E42               	movwf	(?___fltol+3)^0,c
  2097  001062  EFA0  F008         	goto	i2l556
  2098  001066                     i2l2242:
  2099  001066  C03F  F043         	movff	___fltol@f1,??___fltol
  2100  00106A  C040  F044         	movff	___fltol@f1+1,??___fltol+1
  2101  00106E  C041  F045         	movff	___fltol@f1+2,??___fltol+2
  2102  001072  C042  F046         	movff	___fltol@f1+3,??___fltol+3
  2103  001076  0E20               	movlw	32
  2104  001078  EF43  F008         	goto	i2u193_40
  2105  00107C                     i2u193_45:
  2106  00107C  90D8               	bcf	status,0,c
  2107  00107E  3246               	rrcf	(??___fltol+3)^0,f,c
  2108  001080  3245               	rrcf	(??___fltol+2)^0,f,c
  2109  001082  3244               	rrcf	(??___fltol+1)^0,f,c
  2110  001084  3243               	rrcf	??___fltol^0,f,c
  2111  001086                     i2u193_40:
  2112  001086  2EE8               	decfsz	wreg,f,c
  2113  001088  EF3E  F008         	goto	i2u193_45
  2114  00108C  5043               	movf	??___fltol^0,w,c
  2115  00108E  6E47               	movwf	___fltol@sign1^0,c
  2116  001090  8E41               	bsf	(___fltol@f1+2)^0,7,c
  2117  001092  0EFF               	movlw	255
  2118  001094  163F               	andwf	___fltol@f1^0,f,c
  2119  001096  0EFF               	movlw	255
  2120  001098  1640               	andwf	(___fltol@f1+1)^0,f,c
  2121  00109A  0EFF               	movlw	255
  2122  00109C  1641               	andwf	(___fltol@f1+2)^0,f,c
  2123  00109E  0E00               	movlw	0
  2124  0010A0  1642               	andwf	(___fltol@f1+3)^0,f,c
  2125  0010A2  0E96               	movlw	150
  2126  0010A4  5E48               	subwf	___fltol@exp1^0,f,c
  2127  0010A6  BE48               	btfsc	___fltol@exp1^0,7,c
  2128  0010A8  EF5A  F008         	goto	i2u194_40
  2129  0010AC  EF58  F008         	goto	i2u194_41
  2130  0010B0                     i2u194_41:
  2131  0010B0  EF70  F008         	goto	i2l2262
  2132  0010B4                     i2u194_40:
  2133  0010B4  5048               	movf	___fltol@exp1^0,w,c
  2134  0010B6  0A80               	xorlw	128
  2135  0010B8  0F97               	addlw	151
  2136  0010BA  B0D8               	btfsc	status,0,c
  2137  0010BC  EF62  F008         	goto	i2u195_41
  2138  0010C0  EF64  F008         	goto	i2u195_40
  2139  0010C4                     i2u195_41:
  2140  0010C4  EF66  F008         	goto	i2l2258
  2141  0010C8                     i2u195_40:
  2142  0010C8  EF29  F008         	goto	i2l2238
  2143  0010CC                     i2l2258:
  2144  0010CC  90D8               	bcf	status,0,c
  2145  0010CE  3242               	rrcf	(___fltol@f1+3)^0,f,c
  2146  0010D0  3241               	rrcf	(___fltol@f1+2)^0,f,c
  2147  0010D2  3240               	rrcf	(___fltol@f1+1)^0,f,c
  2148  0010D4  323F               	rrcf	___fltol@f1^0,f,c
  2149  0010D6  3E48               	incfsz	___fltol@exp1^0,f,c
  2150  0010D8  EF66  F008         	goto	i2l2258
  2151  0010DC  EF88  F008         	goto	i2l2272
  2152  0010E0                     i2l2262:
  2153  0010E0  0E1F               	movlw	31
  2154  0010E2  6448               	cpfsgt	___fltol@exp1^0,c
  2155  0010E4  EF76  F008         	goto	i2u196_41
  2156  0010E8  EF78  F008         	goto	i2u196_40
  2157  0010EC                     i2u196_41:
  2158  0010EC  EF80  F008         	goto	i2l2270
  2159  0010F0                     i2u196_40:
  2160  0010F0  EF29  F008         	goto	i2l2238
  2161  0010F4                     i2l2268:
  2162  0010F4  90D8               	bcf	status,0,c
  2163  0010F6  363F               	rlcf	___fltol@f1^0,f,c
  2164  0010F8  3640               	rlcf	(___fltol@f1+1)^0,f,c
  2165  0010FA  3641               	rlcf	(___fltol@f1+2)^0,f,c
  2166  0010FC  3642               	rlcf	(___fltol@f1+3)^0,f,c
  2167  0010FE  0648               	decf	___fltol@exp1^0,f,c
  2168  001100                     i2l2270:
  2169  001100  5048               	movf	___fltol@exp1^0,w,c
  2170  001102  A4D8               	btfss	status,2,c
  2171  001104  EF86  F008         	goto	i2u197_41
  2172  001108  EF88  F008         	goto	i2u197_40
  2173  00110C                     i2u197_41:
  2174  00110C  EF7A  F008         	goto	i2l2268
  2175  001110                     i2u197_40:
  2176  001110                     i2l2272:
  2177  001110  5047               	movf	___fltol@sign1^0,w,c
  2178  001112  B4D8               	btfsc	status,2,c
  2179  001114  EF8E  F008         	goto	i2u198_41
  2180  001118  EF90  F008         	goto	i2u198_40
  2181  00111C                     i2u198_41:
  2182  00111C  EF98  F008         	goto	i2l2276
  2183  001120                     i2u198_40:
  2184  001120  1E42               	comf	(___fltol@f1+3)^0,f,c
  2185  001122  1E41               	comf	(___fltol@f1+2)^0,f,c
  2186  001124  1E40               	comf	(___fltol@f1+1)^0,f,c
  2187  001126  6C3F               	negf	___fltol@f1^0,c
  2188  001128  0E00               	movlw	0
  2189  00112A  2240               	addwfc	(___fltol@f1+1)^0,f,c
  2190  00112C  2241               	addwfc	(___fltol@f1+2)^0,f,c
  2191  00112E  2242               	addwfc	(___fltol@f1+3)^0,f,c
  2192  001130                     i2l2276:
  2193  001130  C03F  F03F         	movff	___fltol@f1,?___fltol
  2194  001134  C040  F040         	movff	___fltol@f1+1,?___fltol+1
  2195  001138  C041  F041         	movff	___fltol@f1+2,?___fltol+2
  2196  00113C  C042  F042         	movff	___fltol@f1+3,?___fltol+3
  2197  001140                     i2l556:
  2198  001140  0012               	return		;funcret
  2199  001142                     __end_of___fltol:
  2200                           	callstack 0
  2201                           
  2202 ;; *************** function ___flsub *****************
  2203 ;; Defined at:
  2204 ;;		line 245 in file "C:\Program Files\Microchip\xc8\v2.30\pic\sources\c99\common\sprcadd.c"
  2205 ;; Parameters:    Size  Location     Type
  2206 ;;  b               4   29[COMRAM] long 
  2207 ;;  a               4   33[COMRAM] long 
  2208 ;; Auto vars:     Size  Location     Type
  2209 ;;		None
  2210 ;; Return value:  Size  Location     Type
  2211 ;;                  4   29[COMRAM] long 
  2212 ;; Registers used:
  2213 ;;		wreg, status,2, status,0, cstack
  2214 ;; Tracked objects:
  2215 ;;		On entry : 0/0
  2216 ;;		On exit  : 0/0
  2217 ;;		Unchanged: 0/0
  2218 ;; Data sizes:     COMRAM   BANK0   BANK1   BANK2   BANK3   BANK4   BANK5   BANK6   BANK7
  2219 ;;      Params:         8       0       0       0       0       0       0       0       0
  2220 ;;      Locals:         0       0       0       0       0       0       0       0       0
  2221 ;;      Temps:          0       0       0       0       0       0       0       0       0
  2222 ;;      Totals:         8       0       0       0       0       0       0       0       0
  2223 ;;Total ram usage:        8 bytes
  2224 ;; Hardware stack levels used:    1
  2225 ;; Hardware stack levels required when called:    1
  2226 ;; This function calls:
  2227 ;;		___fladd
  2228 ;; This function is called by:
  2229 ;;		_INT1_DefaultInterruptHandler
  2230 ;; This function uses a non-reentrant model
  2231 ;;
  2232                           
  2233                           	psect	text18
  2234  001332                     __ptext18:
  2235                           	callstack 0
  2236  001332                     ___flsub:
  2237                           	callstack 22
  2238  001332  0E00               	movlw	0
  2239  001334  1A22               	xorwf	___flsub@a^0,f,c
  2240  001336  0E00               	movlw	0
  2241  001338  1A23               	xorwf	(___flsub@a+1)^0,f,c
  2242  00133A  0E00               	movlw	0
  2243  00133C  1A24               	xorwf	(___flsub@a+2)^0,f,c
  2244  00133E  0E80               	movlw	128
  2245  001340  1A25               	xorwf	(___flsub@a+3)^0,f,c
  2246  001342  C01E  F001         	movff	___flsub@b,___fladd@b
  2247  001346  C01F  F002         	movff	___flsub@b+1,___fladd@b+1
  2248  00134A  C020  F003         	movff	___flsub@b+2,___fladd@b+2
  2249  00134E  C021  F004         	movff	___flsub@b+3,___fladd@b+3
  2250  001352  C022  F005         	movff	___flsub@a,___fladd@a
  2251  001356  C023  F006         	movff	___flsub@a+1,___fladd@a+1
  2252  00135A  C024  F007         	movff	___flsub@a+2,___fladd@a+2
  2253  00135E  C025  F008         	movff	___flsub@a+3,___fladd@a+3
  2254  001362  EC3B  F000         	call	___fladd	;wreg free
  2255  001366  C001  F01E         	movff	?___fladd,?___flsub
  2256  00136A  C002  F01F         	movff	?___fladd+1,?___flsub+1
  2257  00136E  C003  F020         	movff	?___fladd+2,?___flsub+2
  2258  001372  C004  F021         	movff	?___fladd+3,?___flsub+3
  2259  001376  0012               	return		;funcret
  2260  001378                     __end_of___flsub:
  2261                           	callstack 0
  2262                           
  2263 ;; *************** function ___fladd *****************
  2264 ;; Defined at:
  2265 ;;		line 10 in file "C:\Program Files\Microchip\xc8\v2.30\pic\sources\c99\common\sprcadd.c"
  2266 ;; Parameters:    Size  Location     Type
  2267 ;;  b               4    0[COMRAM] long 
  2268 ;;  a               4    4[COMRAM] long 
  2269 ;; Auto vars:     Size  Location     Type
  2270 ;;  grs             1   15[COMRAM] unsigned char 
  2271 ;;  bexp            1   14[COMRAM] unsigned char 
  2272 ;;  aexp            1   13[COMRAM] unsigned char 
  2273 ;;  signs           1   12[COMRAM] unsigned char 
  2274 ;; Return value:  Size  Location     Type
  2275 ;;                  4    0[COMRAM] unsigned char 
  2276 ;; Registers used:
  2277 ;;		wreg, status,2, status,0
  2278 ;; Tracked objects:
  2279 ;;		On entry : 0/0
  2280 ;;		On exit  : 0/0
  2281 ;;		Unchanged: 0/0
  2282 ;; Data sizes:     COMRAM   BANK0   BANK1   BANK2   BANK3   BANK4   BANK5   BANK6   BANK7
  2283 ;;      Params:         8       0       0       0       0       0       0       0       0
  2284 ;;      Locals:         4       0       0       0       0       0       0       0       0
  2285 ;;      Temps:          4       0       0       0       0       0       0       0       0
  2286 ;;      Totals:        16       0       0       0       0       0       0       0       0
  2287 ;;Total ram usage:       16 bytes
  2288 ;; Hardware stack levels used:    1
  2289 ;; This function calls:
  2290 ;;		Nothing
  2291 ;; This function is called by:
  2292 ;;		___flsub
  2293 ;; This function uses a non-reentrant model
  2294 ;;
  2295                           
  2296                           	psect	text19
  2297  000076                     __ptext19:
  2298                           	callstack 0
  2299  000076                     ___fladd:
  2300                           	callstack 22
  2301  000076  5004               	movf	(___fladd@b+3)^0,w,c
  2302  000078  0B80               	andlw	128
  2303  00007A  6E0D               	movwf	___fladd@signs^0,c
  2304  00007C  5004               	movf	(___fladd@b+3)^0,w,c
  2305  00007E  2404               	addwf	(___fladd@b+3)^0,w,c
  2306  000080  6E0F               	movwf	___fladd@bexp^0,c
  2307  000082  AE03               	btfss	(___fladd@b+2)^0,7,c
  2308  000084  EF46  F000         	goto	i2u111_41
  2309  000088  EF48  F000         	goto	i2u111_40
  2310  00008C                     i2u111_41:
  2311  00008C  EF49  F000         	goto	i2l1744
  2312  000090                     i2u111_40:
  2313  000090  800F               	bsf	___fladd@bexp^0,0,c
  2314  000092                     i2l1744:
  2315  000092  500F               	movf	___fladd@bexp^0,w,c
  2316  000094  B4D8               	btfsc	status,2,c
  2317  000096  EF4F  F000         	goto	i2u112_41
  2318  00009A  EF51  F000         	goto	i2u112_40
  2319  00009E                     i2u112_41:
  2320  00009E  EF66  F000         	goto	i2l1754
  2321  0000A2                     i2u112_40:
  2322  0000A2  280F               	incf	___fladd@bexp^0,w,c
  2323  0000A4  A4D8               	btfss	status,2,c
  2324  0000A6  EF57  F000         	goto	i2u113_41
  2325  0000AA  EF59  F000         	goto	i2u113_40
  2326  0000AE                     i2u113_41:
  2327  0000AE  EF61  F000         	goto	i2l1750
  2328  0000B2                     i2u113_40:
  2329  0000B2  0E00               	movlw	0
  2330  0000B4  6E01               	movwf	___fladd@b^0,c
  2331  0000B6  0E00               	movlw	0
  2332  0000B8  6E02               	movwf	(___fladd@b+1)^0,c
  2333  0000BA  0E00               	movlw	0
  2334  0000BC  6E03               	movwf	(___fladd@b+2)^0,c
  2335  0000BE  0E00               	movlw	0
  2336  0000C0  6E04               	movwf	(___fladd@b+3)^0,c
  2337  0000C2                     i2l1750:
  2338  0000C2  8E03               	bsf	(___fladd@b+2)^0,7,c
  2339  0000C4  0E00               	movlw	0
  2340  0000C6  6E04               	movwf	(___fladd@b+3)^0,c
  2341  0000C8  EF6E  F000         	goto	i2l1756
  2342  0000CC                     i2l1754:
  2343  0000CC  0E00               	movlw	0
  2344  0000CE  6E01               	movwf	___fladd@b^0,c
  2345  0000D0  0E00               	movlw	0
  2346  0000D2  6E02               	movwf	(___fladd@b+1)^0,c
  2347  0000D4  0E00               	movlw	0
  2348  0000D6  6E03               	movwf	(___fladd@b+2)^0,c
  2349  0000D8  0E00               	movlw	0
  2350  0000DA  6E04               	movwf	(___fladd@b+3)^0,c
  2351  0000DC                     i2l1756:
  2352  0000DC  5008               	movf	(___fladd@a+3)^0,w,c
  2353  0000DE  0B80               	andlw	128
  2354  0000E0  6E0E               	movwf	___fladd@aexp^0,c
  2355  0000E2  500D               	movf	___fladd@signs^0,w,c
  2356  0000E4  180E               	xorwf	___fladd@aexp^0,w,c
  2357  0000E6  B4D8               	btfsc	status,2,c
  2358  0000E8  EF78  F000         	goto	i2u114_41
  2359  0000EC  EF7A  F000         	goto	i2u114_40
  2360  0000F0                     i2u114_41:
  2361  0000F0  EF7B  F000         	goto	i2l1762
  2362  0000F4                     i2u114_40:
  2363  0000F4  8C0D               	bsf	___fladd@signs^0,6,c
  2364  0000F6                     i2l1762:
  2365  0000F6  5008               	movf	(___fladd@a+3)^0,w,c
  2366  0000F8  2408               	addwf	(___fladd@a+3)^0,w,c
  2367  0000FA  6E0E               	movwf	___fladd@aexp^0,c
  2368  0000FC  AE07               	btfss	(___fladd@a+2)^0,7,c
  2369  0000FE  EF83  F000         	goto	i2u115_41
  2370  000102  EF85  F000         	goto	i2u115_40
  2371  000106                     i2u115_41:
  2372  000106  EF86  F000         	goto	i2l1768
  2373  00010A                     i2u115_40:
  2374  00010A  800E               	bsf	___fladd@aexp^0,0,c
  2375  00010C                     i2l1768:
  2376  00010C  500E               	movf	___fladd@aexp^0,w,c
  2377  00010E  B4D8               	btfsc	status,2,c
  2378  000110  EF8C  F000         	goto	i2u116_41
  2379  000114  EF8E  F000         	goto	i2u116_40
  2380  000118                     i2u116_41:
  2381  000118  EFA3  F000         	goto	i2l1778
  2382  00011C                     i2u116_40:
  2383  00011C  280E               	incf	___fladd@aexp^0,w,c
  2384  00011E  A4D8               	btfss	status,2,c
  2385  000120  EF94  F000         	goto	i2u117_41
  2386  000124  EF96  F000         	goto	i2u117_40
  2387  000128                     i2u117_41:
  2388  000128  EF9E  F000         	goto	i2l1774
  2389  00012C                     i2u117_40:
  2390  00012C  0E00               	movlw	0
  2391  00012E  6E05               	movwf	___fladd@a^0,c
  2392  000130  0E00               	movlw	0
  2393  000132  6E06               	movwf	(___fladd@a+1)^0,c
  2394  000134  0E00               	movlw	0
  2395  000136  6E07               	movwf	(___fladd@a+2)^0,c
  2396  000138  0E00               	movlw	0
  2397  00013A  6E08               	movwf	(___fladd@a+3)^0,c
  2398  00013C                     i2l1774:
  2399  00013C  8E07               	bsf	(___fladd@a+2)^0,7,c
  2400  00013E  0E00               	movlw	0
  2401  000140  6E08               	movwf	(___fladd@a+3)^0,c
  2402  000142  EFAB  F000         	goto	i2l1780
  2403  000146                     i2l1778:
  2404  000146  0E00               	movlw	0
  2405  000148  6E05               	movwf	___fladd@a^0,c
  2406  00014A  0E00               	movlw	0
  2407  00014C  6E06               	movwf	(___fladd@a+1)^0,c
  2408  00014E  0E00               	movlw	0
  2409  000150  6E07               	movwf	(___fladd@a+2)^0,c
  2410  000152  0E00               	movlw	0
  2411  000154  6E08               	movwf	(___fladd@a+3)^0,c
  2412  000156                     i2l1780:
  2413  000156  500F               	movf	___fladd@bexp^0,w,c
  2414  000158  5C0E               	subwf	___fladd@aexp^0,w,c
  2415  00015A  B0D8               	btfsc	status,0,c
  2416  00015C  EFB2  F000         	goto	i2u118_41
  2417  000160  EFB4  F000         	goto	i2u118_40
  2418  000164                     i2u118_41:
  2419  000164  EFDB  F000         	goto	i2l1816
  2420  000168                     i2u118_40:
  2421  000168  AC0D               	btfss	___fladd@signs^0,6,c
  2422  00016A  EFB9  F000         	goto	i2u119_41
  2423  00016E  EFBB  F000         	goto	i2u119_40
  2424  000172                     i2u119_41:
  2425  000172  EFBD  F000         	goto	i2l1786
  2426  000176                     i2u119_40:
  2427  000176  0E80               	movlw	128
  2428  000178  1A0D               	xorwf	___fladd@signs^0,f,c
  2429  00017A                     i2l1786:
  2430  00017A  C00F  F010         	movff	___fladd@bexp,___fladd@grs
  2431  00017E  C00E  F00F         	movff	___fladd@aexp,___fladd@bexp
  2432  000182  C010  F00E         	movff	___fladd@grs,___fladd@aexp
  2433  000186  C001  F010         	movff	___fladd@b,___fladd@grs
  2434  00018A  C005  F001         	movff	___fladd@a,___fladd@b
  2435  00018E  C010  F005         	movff	___fladd@grs,___fladd@a
  2436  000192  C002  F010         	movff	___fladd@b+1,___fladd@grs
  2437  000196  C006  F002         	movff	___fladd@a+1,___fladd@b+1
  2438  00019A  C010  F006         	movff	___fladd@grs,___fladd@a+1
  2439  00019E  C003  F010         	movff	___fladd@b+2,___fladd@grs
  2440  0001A2  C007  F003         	movff	___fladd@a+2,___fladd@b+2
  2441  0001A6  C010  F007         	movff	___fladd@grs,___fladd@a+2
  2442  0001AA  C004  F010         	movff	___fladd@b+3,___fladd@grs
  2443  0001AE  C008  F004         	movff	___fladd@a+3,___fladd@b+3
  2444  0001B2  C010  F008         	movff	___fladd@grs,___fladd@a+3
  2445  0001B6                     i2l1816:
  2446  0001B6  0E00               	movlw	0
  2447  0001B8  6E10               	movwf	___fladd@grs^0,c
  2448  0001BA  500F               	movf	___fladd@bexp^0,w,c
  2449  0001BC  C00E  F009         	movff	___fladd@aexp,??___fladd
  2450  0001C0  6A0A               	clrf	(??___fladd+1)^0,c
  2451  0001C2  5E09               	subwf	??___fladd^0,f,c
  2452  0001C4  0E00               	movlw	0
  2453  0001C6  5A0A               	subwfb	(??___fladd+1)^0,f,c
  2454  0001C8  BE0A               	btfsc	(??___fladd+1)^0,7,c
  2455  0001CA  EFF0  F000         	goto	i2u120_41
  2456  0001CE  500A               	movf	(??___fladd+1)^0,w,c
  2457  0001D0  E109               	bnz	i2u120_40
  2458  0001D2  0E1A               	movlw	26
  2459  0001D4  5C09               	subwf	??___fladd^0,w,c
  2460  0001D6  A0D8               	btfss	status,0,c
  2461  0001D8  EFF0  F000         	goto	i2u120_41
  2462  0001DC  EFF2  F000         	goto	i2u120_40
  2463  0001E0                     i2u120_41:
  2464  0001E0  EF29  F001         	goto	i2l788
  2465  0001E4                     i2u120_40:
  2466  0001E4  5001               	movf	___fladd@b^0,w,c
  2467  0001E6  1002               	iorwf	(___fladd@b+1)^0,w,c
  2468  0001E8  1003               	iorwf	(___fladd@b+2)^0,w,c
  2469  0001EA  1004               	iorwf	(___fladd@b+3)^0,w,c
  2470  0001EC  A4D8               	btfss	status,2,c
  2471  0001EE  EFFB  F000         	goto	i2u121_41
  2472  0001F2  EFFE  F000         	goto	i2u121_40
  2473  0001F6                     i2u121_41:
  2474  0001F6  0E01               	movlw	1
  2475  0001F8  EFFF  F000         	goto	i2u122_40
  2476  0001FC                     i2u121_40:
  2477  0001FC  0E00               	movlw	0
  2478  0001FE                     i2u122_40:
  2479  0001FE  6E10               	movwf	___fladd@grs^0,c
  2480  000200  0E00               	movlw	0
  2481  000202  6E01               	movwf	___fladd@b^0,c
  2482  000204  0E00               	movlw	0
  2483  000206  6E02               	movwf	(___fladd@b+1)^0,c
  2484  000208  0E00               	movlw	0
  2485  00020A  6E03               	movwf	(___fladd@b+2)^0,c
  2486  00020C  0E00               	movlw	0
  2487  00020E  6E04               	movwf	(___fladd@b+3)^0,c
  2488  000210  C00E  F00F         	movff	___fladd@aexp,___fladd@bexp
  2489  000214  EF32  F001         	goto	i2l787
  2490  000218                     i2l789:
  2491  000218  A010               	btfss	___fladd@grs^0,0,c
  2492  00021A  EF11  F001         	goto	i2u123_41
  2493  00021E  EF13  F001         	goto	i2u123_40
  2494  000222                     i2u123_41:
  2495  000222  EF19  F001         	goto	i2l1828
  2496  000226                     i2u123_40:
  2497  000226  90D8               	bcf	status,0,c
  2498  000228  3010               	rrcf	___fladd@grs^0,w,c
  2499  00022A  0901               	iorlw	1
  2500  00022C  6E10               	movwf	___fladd@grs^0,c
  2501  00022E  EF1B  F001         	goto	i2l1830
  2502  000232                     i2l1828:
  2503  000232  90D8               	bcf	status,0,c
  2504  000234  3210               	rrcf	___fladd@grs^0,f,c
  2505  000236                     i2l1830:
  2506  000236  A001               	btfss	___fladd@b^0,0,c
  2507  000238  EF20  F001         	goto	i2u124_41
  2508  00023C  EF22  F001         	goto	i2u124_40
  2509  000240                     i2u124_41:
  2510  000240  EF23  F001         	goto	i2l1834
  2511  000244                     i2u124_40:
  2512  000244  8E10               	bsf	___fladd@grs^0,7,c
  2513  000246                     i2l1834:
  2514  000246  3404               	rlcf	(___fladd@b+3)^0,w,c
  2515  000248  3204               	rrcf	(___fladd@b+3)^0,f,c
  2516  00024A  3203               	rrcf	(___fladd@b+2)^0,f,c
  2517  00024C  3202               	rrcf	(___fladd@b+1)^0,f,c
  2518  00024E  3201               	rrcf	___fladd@b^0,f,c
  2519  000250  2A0F               	incf	___fladd@bexp^0,f,c
  2520  000252                     i2l788:
  2521  000252  500E               	movf	___fladd@aexp^0,w,c
  2522  000254  5C0F               	subwf	___fladd@bexp^0,w,c
  2523  000256  A0D8               	btfss	status,0,c
  2524  000258  EF30  F001         	goto	i2u125_41
  2525  00025C  EF32  F001         	goto	i2u125_40
  2526  000260                     i2u125_41:
  2527  000260  EF0C  F001         	goto	i2l789
  2528  000264                     i2u125_40:
  2529  000264                     i2l787:
  2530  000264  BC0D               	btfsc	___fladd@signs^0,6,c
  2531  000266  EF37  F001         	goto	i2u126_41
  2532  00026A  EF39  F001         	goto	i2u126_40
  2533  00026E                     i2u126_41:
  2534  00026E  EF79  F001         	goto	i2l1862
  2535  000272                     i2u126_40:
  2536  000272  500F               	movf	___fladd@bexp^0,w,c
  2537  000274  A4D8               	btfss	status,2,c
  2538  000276  EF3F  F001         	goto	i2u127_41
  2539  00027A  EF41  F001         	goto	i2u127_40
  2540  00027E                     i2u127_41:
  2541  00027E  EF4B  F001         	goto	i2l1844
  2542  000282                     i2u127_40:
  2543  000282  0E00               	movlw	0
  2544  000284  6E01               	movwf	?___fladd^0,c
  2545  000286  0E00               	movlw	0
  2546  000288  6E02               	movwf	(?___fladd+1)^0,c
  2547  00028A  0E00               	movlw	0
  2548  00028C  6E03               	movwf	(?___fladd+2)^0,c
  2549  00028E  0E00               	movlw	0
  2550  000290  6E04               	movwf	(?___fladd+3)^0,c
  2551  000292  EF9A  F002         	goto	i2l796
  2552  000296                     i2l1844:
  2553  000296  5005               	movf	___fladd@a^0,w,c
  2554  000298  2601               	addwf	___fladd@b^0,f,c
  2555  00029A  5006               	movf	(___fladd@a+1)^0,w,c
  2556  00029C  2202               	addwfc	(___fladd@b+1)^0,f,c
  2557  00029E  5007               	movf	(___fladd@a+2)^0,w,c
  2558  0002A0  2203               	addwfc	(___fladd@b+2)^0,f,c
  2559  0002A2  5008               	movf	(___fladd@a+3)^0,w,c
  2560  0002A4  2204               	addwfc	(___fladd@b+3)^0,f,c
  2561  0002A6  A004               	btfss	(___fladd@b+3)^0,0,c
  2562  0002A8  EF58  F001         	goto	i2u128_41
  2563  0002AC  EF5A  F001         	goto	i2u128_40
  2564  0002B0                     i2u128_41:
  2565  0002B0  EF06  F002         	goto	i2l1898
  2566  0002B4                     i2u128_40:
  2567  0002B4  A010               	btfss	___fladd@grs^0,0,c
  2568  0002B6  EF5F  F001         	goto	i2u129_41
  2569  0002BA  EF61  F001         	goto	i2u129_40
  2570  0002BE                     i2u129_41:
  2571  0002BE  EF67  F001         	goto	i2l1852
  2572  0002C2                     i2u129_40:
  2573  0002C2  90D8               	bcf	status,0,c
  2574  0002C4  3010               	rrcf	___fladd@grs^0,w,c
  2575  0002C6  0901               	iorlw	1
  2576  0002C8  6E10               	movwf	___fladd@grs^0,c
  2577  0002CA  EF69  F001         	goto	i2l1854
  2578  0002CE                     i2l1852:
  2579  0002CE  90D8               	bcf	status,0,c
  2580  0002D0  3210               	rrcf	___fladd@grs^0,f,c
  2581  0002D2                     i2l1854:
  2582  0002D2  A001               	btfss	___fladd@b^0,0,c
  2583  0002D4  EF6E  F001         	goto	i2u130_41
  2584  0002D8  EF70  F001         	goto	i2u130_40
  2585  0002DC                     i2u130_41:
  2586  0002DC  EF71  F001         	goto	i2l1858
  2587  0002E0                     i2u130_40:
  2588  0002E0  8E10               	bsf	___fladd@grs^0,7,c
  2589  0002E2                     i2l1858:
  2590  0002E2  3404               	rlcf	(___fladd@b+3)^0,w,c
  2591  0002E4  3204               	rrcf	(___fladd@b+3)^0,f,c
  2592  0002E6  3203               	rrcf	(___fladd@b+2)^0,f,c
  2593  0002E8  3202               	rrcf	(___fladd@b+1)^0,f,c
  2594  0002EA  3201               	rrcf	___fladd@b^0,f,c
  2595  0002EC  2A0F               	incf	___fladd@bexp^0,f,c
  2596  0002EE  EF06  F002         	goto	i2l1898
  2597  0002F2                     i2l1862:
  2598  0002F2  5005               	movf	___fladd@a^0,w,c
  2599  0002F4  5C01               	subwf	___fladd@b^0,w,c
  2600  0002F6  5006               	movf	(___fladd@a+1)^0,w,c
  2601  0002F8  5802               	subwfb	(___fladd@b+1)^0,w,c
  2602  0002FA  5007               	movf	(___fladd@a+2)^0,w,c
  2603  0002FC  5803               	subwfb	(___fladd@b+2)^0,w,c
  2604  0002FE  5004               	movf	(___fladd@b+3)^0,w,c
  2605  000300  0A80               	xorlw	128
  2606  000302  6E09               	movwf	??___fladd^0,c
  2607  000304  5008               	movf	(___fladd@a+3)^0,w,c
  2608  000306  0A80               	xorlw	128
  2609  000308  5809               	subwfb	??___fladd^0,w,c
  2610  00030A  B0D8               	btfsc	status,0,c
  2611  00030C  EF8A  F001         	goto	i2u131_41
  2612  000310  EF8C  F001         	goto	i2u131_40
  2613  000314                     i2u131_41:
  2614  000314  EFB7  F001         	goto	i2l1872
  2615  000318                     i2u131_40:
  2616  000318  5001               	movf	___fladd@b^0,w,c
  2617  00031A  5C05               	subwf	___fladd@a^0,w,c
  2618  00031C  6E09               	movwf	??___fladd^0,c
  2619  00031E  5002               	movf	(___fladd@b+1)^0,w,c
  2620  000320  5806               	subwfb	(___fladd@a+1)^0,w,c
  2621  000322  6E0A               	movwf	(??___fladd+1)^0,c
  2622  000324  5003               	movf	(___fladd@b+2)^0,w,c
  2623  000326  5807               	subwfb	(___fladd@a+2)^0,w,c
  2624  000328  6E0B               	movwf	(??___fladd+2)^0,c
  2625  00032A  5004               	movf	(___fladd@b+3)^0,w,c
  2626  00032C  5808               	subwfb	(___fladd@a+3)^0,w,c
  2627  00032E  6E0C               	movwf	(??___fladd+3)^0,c
  2628  000330  0EFF               	movlw	255
  2629  000332  2409               	addwf	??___fladd^0,w,c
  2630  000334  6E01               	movwf	___fladd@b^0,c
  2631  000336  0EFF               	movlw	255
  2632  000338  200A               	addwfc	(??___fladd+1)^0,w,c
  2633  00033A  6E02               	movwf	(___fladd@b+1)^0,c
  2634  00033C  0EFF               	movlw	255
  2635  00033E  200B               	addwfc	(??___fladd+2)^0,w,c
  2636  000340  6E03               	movwf	(___fladd@b+2)^0,c
  2637  000342  0EFF               	movlw	255
  2638  000344  200C               	addwfc	(??___fladd+3)^0,w,c
  2639  000346  6E04               	movwf	(___fladd@b+3)^0,c
  2640  000348  0E80               	movlw	128
  2641  00034A  1A0D               	xorwf	___fladd@signs^0,f,c
  2642  00034C  6C10               	negf	___fladd@grs^0,c
  2643  00034E  5010               	movf	___fladd@grs^0,w,c
  2644  000350  A4D8               	btfss	status,2,c
  2645  000352  EFAD  F001         	goto	i2u132_41
  2646  000356  EFAF  F001         	goto	i2u132_40
  2647  00035A                     i2u132_41:
  2648  00035A  EFBF  F001         	goto	i2l804
  2649  00035E                     i2u132_40:
  2650  00035E  0E01               	movlw	1
  2651  000360  2601               	addwf	___fladd@b^0,f,c
  2652  000362  0E00               	movlw	0
  2653  000364  2202               	addwfc	(___fladd@b+1)^0,f,c
  2654  000366  2203               	addwfc	(___fladd@b+2)^0,f,c
  2655  000368  2204               	addwfc	(___fladd@b+3)^0,f,c
  2656  00036A  EFBF  F001         	goto	i2l804
  2657  00036E                     i2l1872:
  2658  00036E  5005               	movf	___fladd@a^0,w,c
  2659  000370  5E01               	subwf	___fladd@b^0,f,c
  2660  000372  5006               	movf	(___fladd@a+1)^0,w,c
  2661  000374  5A02               	subwfb	(___fladd@b+1)^0,f,c
  2662  000376  5007               	movf	(___fladd@a+2)^0,w,c
  2663  000378  5A03               	subwfb	(___fladd@b+2)^0,f,c
  2664  00037A  5008               	movf	(___fladd@a+3)^0,w,c
  2665  00037C  5A04               	subwfb	(___fladd@b+3)^0,f,c
  2666  00037E                     i2l804:
  2667  00037E  5001               	movf	___fladd@b^0,w,c
  2668  000380  1002               	iorwf	(___fladd@b+1)^0,w,c
  2669  000382  1003               	iorwf	(___fladd@b+2)^0,w,c
  2670  000384  1004               	iorwf	(___fladd@b+3)^0,w,c
  2671  000386  A4D8               	btfss	status,2,c
  2672  000388  EFC8  F001         	goto	i2u133_41
  2673  00038C  EFCA  F001         	goto	i2u133_40
  2674  000390                     i2u133_41:
  2675  000390  EFFF  F001         	goto	i2l1896
  2676  000394                     i2u133_40:
  2677  000394  5010               	movf	___fladd@grs^0,w,c
  2678  000396  A4D8               	btfss	status,2,c
  2679  000398  EFD0  F001         	goto	i2u134_41
  2680  00039C  EFD2  F001         	goto	i2u134_40
  2681  0003A0                     i2u134_41:
  2682  0003A0  EFFF  F001         	goto	i2l1896
  2683  0003A4                     i2u134_40:
  2684  0003A4  0E00               	movlw	0
  2685  0003A6  6E01               	movwf	?___fladd^0,c
  2686  0003A8  0E00               	movlw	0
  2687  0003AA  6E02               	movwf	(?___fladd+1)^0,c
  2688  0003AC  0E00               	movlw	0
  2689  0003AE  6E03               	movwf	(?___fladd+2)^0,c
  2690  0003B0  0E00               	movlw	0
  2691  0003B2  6E04               	movwf	(?___fladd+3)^0,c
  2692  0003B4  EF9A  F002         	goto	i2l796
  2693  0003B8                     i2l1880:
  2694  0003B8  90D8               	bcf	status,0,c
  2695  0003BA  3601               	rlcf	___fladd@b^0,f,c
  2696  0003BC  3602               	rlcf	(___fladd@b+1)^0,f,c
  2697  0003BE  3603               	rlcf	(___fladd@b+2)^0,f,c
  2698  0003C0  3604               	rlcf	(___fladd@b+3)^0,f,c
  2699  0003C2  AE10               	btfss	___fladd@grs^0,7,c
  2700  0003C4  EFE6  F001         	goto	i2u135_41
  2701  0003C8  EFE8  F001         	goto	i2u135_40
  2702  0003CC                     i2u135_41:
  2703  0003CC  EFE9  F001         	goto	i2l1886
  2704  0003D0                     i2u135_40:
  2705  0003D0  8001               	bsf	___fladd@b^0,0,c
  2706  0003D2                     i2l1886:
  2707  0003D2  A010               	btfss	___fladd@grs^0,0,c
  2708  0003D4  EFEE  F001         	goto	i2u136_41
  2709  0003D8  EFF0  F001         	goto	i2u136_40
  2710  0003DC                     i2u136_41:
  2711  0003DC  EFF4  F001         	goto	i2l1890
  2712  0003E0                     i2u136_40:
  2713  0003E0  80D8               	bsf	status,0,c
  2714  0003E2  3610               	rlcf	___fladd@grs^0,f,c
  2715  0003E4  EFF6  F001         	goto	i2l1892
  2716  0003E8                     i2l1890:
  2717  0003E8  90D8               	bcf	status,0,c
  2718  0003EA  3610               	rlcf	___fladd@grs^0,f,c
  2719  0003EC                     i2l1892:
  2720  0003EC  500F               	movf	___fladd@bexp^0,w,c
  2721  0003EE  B4D8               	btfsc	status,2,c
  2722  0003F0  EFFC  F001         	goto	i2u137_41
  2723  0003F4  EFFE  F001         	goto	i2u137_40
  2724  0003F8                     i2u137_41:
  2725  0003F8  EFFF  F001         	goto	i2l1896
  2726  0003FC                     i2u137_40:
  2727  0003FC  060F               	decf	___fladd@bexp^0,f,c
  2728  0003FE                     i2l1896:
  2729  0003FE  AE03               	btfss	(___fladd@b+2)^0,7,c
  2730  000400  EF04  F002         	goto	i2u138_41
  2731  000404  EF06  F002         	goto	i2u138_40
  2732  000408                     i2u138_41:
  2733  000408  EFDC  F001         	goto	i2l1880
  2734  00040C                     i2u138_40:
  2735  00040C                     i2l1898:
  2736  00040C  0E00               	movlw	0
  2737  00040E  6E0E               	movwf	___fladd@aexp^0,c
  2738  000410  AE10               	btfss	___fladd@grs^0,7,c
  2739  000412  EF0D  F002         	goto	i2u139_41
  2740  000416  EF0F  F002         	goto	i2u139_40
  2741  00041A                     i2u139_41:
  2742  00041A  EF27  F002         	goto	i2l813
  2743  00041E                     i2u139_40:
  2744  00041E  C010  F009         	movff	___fladd@grs,??___fladd
  2745  000422  0E7F               	movlw	127
  2746  000424  1609               	andwf	??___fladd^0,f,c
  2747  000426  B4D8               	btfsc	status,2,c
  2748  000428  EF18  F002         	goto	i2u140_41
  2749  00042C  EF1A  F002         	goto	i2u140_40
  2750  000430                     i2u140_41:
  2751  000430  EF1E  F002         	goto	i2l814
  2752  000434                     i2u140_40:
  2753  000434                     i2l1904:
  2754  000434  0E01               	movlw	1
  2755  000436  6E0E               	movwf	___fladd@aexp^0,c
  2756  000438  EF27  F002         	goto	i2l813
  2757  00043C                     i2l814:
  2758  00043C  A001               	btfss	___fladd@b^0,0,c
  2759  00043E  EF23  F002         	goto	i2u141_41
  2760  000442  EF25  F002         	goto	i2u141_40
  2761  000446                     i2u141_41:
  2762  000446  EF27  F002         	goto	i2l813
  2763  00044A                     i2u141_40:
  2764  00044A  EF1A  F002         	goto	i2l1904
  2765  00044E                     i2l813:
  2766  00044E  500E               	movf	___fladd@aexp^0,w,c
  2767  000450  B4D8               	btfsc	status,2,c
  2768  000452  EF2D  F002         	goto	i2u142_41
  2769  000456  EF2F  F002         	goto	i2u142_40
  2770  00045A                     i2u142_41:
  2771  00045A  EF5A  F002         	goto	i2l1916
  2772  00045E                     i2u142_40:
  2773  00045E  0E01               	movlw	1
  2774  000460  2601               	addwf	___fladd@b^0,f,c
  2775  000462  0E00               	movlw	0
  2776  000464  2202               	addwfc	(___fladd@b+1)^0,f,c
  2777  000466  2203               	addwfc	(___fladd@b+2)^0,f,c
  2778  000468  2204               	addwfc	(___fladd@b+3)^0,f,c
  2779  00046A  A004               	btfss	(___fladd@b+3)^0,0,c
  2780  00046C  EF3A  F002         	goto	i2u143_41
  2781  000470  EF3C  F002         	goto	i2u143_40
  2782  000474                     i2u143_41:
  2783  000474  EF5A  F002         	goto	i2l1916
  2784  000478                     i2u143_40:
  2785  000478  C001  F009         	movff	___fladd@b,??___fladd
  2786  00047C  C002  F00A         	movff	___fladd@b+1,??___fladd+1
  2787  000480  C003  F00B         	movff	___fladd@b+2,??___fladd+2
  2788  000484  C004  F00C         	movff	___fladd@b+3,??___fladd+3
  2789  000488  340C               	rlcf	(??___fladd+3)^0,w,c
  2790  00048A  320C               	rrcf	(??___fladd+3)^0,f,c
  2791  00048C  320B               	rrcf	(??___fladd+2)^0,f,c
  2792  00048E  320A               	rrcf	(??___fladd+1)^0,f,c
  2793  000490  3209               	rrcf	??___fladd^0,f,c
  2794  000492  C009  F001         	movff	??___fladd,___fladd@b
  2795  000496  C00A  F002         	movff	??___fladd+1,___fladd@b+1
  2796  00049A  C00B  F003         	movff	??___fladd+2,___fladd@b+2
  2797  00049E  C00C  F004         	movff	??___fladd+3,___fladd@b+3
  2798  0004A2  280F               	incf	___fladd@bexp^0,w,c
  2799  0004A4  B4D8               	btfsc	status,2,c
  2800  0004A6  EF57  F002         	goto	i2u144_41
  2801  0004AA  EF59  F002         	goto	i2u144_40
  2802  0004AE                     i2u144_41:
  2803  0004AE  EF5A  F002         	goto	i2l1916
  2804  0004B2                     i2u144_40:
  2805  0004B2  2A0F               	incf	___fladd@bexp^0,f,c
  2806  0004B4                     i2l1916:
  2807  0004B4  280F               	incf	___fladd@bexp^0,w,c
  2808  0004B6  B4D8               	btfsc	status,2,c
  2809  0004B8  EF60  F002         	goto	i2u145_41
  2810  0004BC  EF62  F002         	goto	i2u145_40
  2811  0004C0                     i2u145_41:
  2812  0004C0  EF6A  F002         	goto	i2l1920
  2813  0004C4                     i2u145_40:
  2814  0004C4  500F               	movf	___fladd@bexp^0,w,c
  2815  0004C6  A4D8               	btfss	status,2,c
  2816  0004C8  EF68  F002         	goto	i2u146_41
  2817  0004CC  EF6A  F002         	goto	i2u146_40
  2818  0004D0                     i2u146_41:
  2819  0004D0  EF7C  F002         	goto	i2l1924
  2820  0004D4                     i2u146_40:
  2821  0004D4                     i2l1920:
  2822  0004D4  0E00               	movlw	0
  2823  0004D6  6E01               	movwf	___fladd@b^0,c
  2824  0004D8  0E00               	movlw	0
  2825  0004DA  6E02               	movwf	(___fladd@b+1)^0,c
  2826  0004DC  0E00               	movlw	0
  2827  0004DE  6E03               	movwf	(___fladd@b+2)^0,c
  2828  0004E0  0E00               	movlw	0
  2829  0004E2  6E04               	movwf	(___fladd@b+3)^0,c
  2830  0004E4  500F               	movf	___fladd@bexp^0,w,c
  2831  0004E6  A4D8               	btfss	status,2,c
  2832  0004E8  EF78  F002         	goto	i2u147_41
  2833  0004EC  EF7A  F002         	goto	i2u147_40
  2834  0004F0                     i2u147_41:
  2835  0004F0  EF7C  F002         	goto	i2l1924
  2836  0004F4                     i2u147_40:
  2837  0004F4  0E00               	movlw	0
  2838  0004F6  6E0D               	movwf	___fladd@signs^0,c
  2839  0004F8                     i2l1924:
  2840  0004F8  A00F               	btfss	___fladd@bexp^0,0,c
  2841  0004FA  EF81  F002         	goto	i2u148_41
  2842  0004FE  EF83  F002         	goto	i2u148_40
  2843  000502                     i2u148_41:
  2844  000502  EF86  F002         	goto	i2l1928
  2845  000506                     i2u148_40:
  2846  000506  8E03               	bsf	(___fladd@b+2)^0,7,c
  2847  000508  EF87  F002         	goto	i2l1930
  2848  00050C                     i2l1928:
  2849  00050C  9E03               	bcf	(___fladd@b+2)^0,7,c
  2850  00050E                     i2l1930:
  2851  00050E  90D8               	bcf	status,0,c
  2852  000510  300F               	rrcf	___fladd@bexp^0,w,c
  2853  000512  6E04               	movwf	(___fladd@b+3)^0,c
  2854  000514  AE0D               	btfss	___fladd@signs^0,7,c
  2855  000516  EF8F  F002         	goto	i2u149_41
  2856  00051A  EF91  F002         	goto	i2u149_40
  2857  00051E                     i2u149_41:
  2858  00051E  EF92  F002         	goto	i2l1936
  2859  000522                     i2u149_40:
  2860  000522  8E04               	bsf	(___fladd@b+3)^0,7,c
  2861  000524                     i2l1936:
  2862  000524  C001  F001         	movff	___fladd@b,?___fladd
  2863  000528  C002  F002         	movff	___fladd@b+1,?___fladd+1
  2864  00052C  C003  F003         	movff	___fladd@b+2,?___fladd+2
  2865  000530  C004  F004         	movff	___fladd@b+3,?___fladd+3
  2866  000534                     i2l796:
  2867  000534  0012               	return		;funcret
  2868  000536                     __end_of___fladd:
  2869                           	callstack 0
  2870                           
  2871 ;; *************** function ___flmul *****************
  2872 ;; Defined at:
  2873 ;;		line 8 in file "C:\Program Files\Microchip\xc8\v2.30\pic\sources\c99\common\sprcmul.c"
  2874 ;; Parameters:    Size  Location     Type
  2875 ;;  b               4   37[COMRAM] unsigned char 
  2876 ;;  a               4   41[COMRAM] unsigned char 
  2877 ;; Auto vars:     Size  Location     Type
  2878 ;;  prod            4   56[COMRAM] struct .
  2879 ;;  grs             4   50[COMRAM] unsigned long 
  2880 ;;  temp            2   60[COMRAM] struct .
  2881 ;;  bexp            1   55[COMRAM] unsigned char 
  2882 ;;  aexp            1   54[COMRAM] unsigned char 
  2883 ;;  sign            1   49[COMRAM] unsigned char 
  2884 ;; Return value:  Size  Location     Type
  2885 ;;                  4   37[COMRAM] unsigned char 
  2886 ;; Registers used:
  2887 ;;		wreg, status,2, status,0, prodl, prodh
  2888 ;; Tracked objects:
  2889 ;;		On entry : 0/0
  2890 ;;		On exit  : 0/0
  2891 ;;		Unchanged: 0/0
  2892 ;; Data sizes:     COMRAM   BANK0   BANK1   BANK2   BANK3   BANK4   BANK5   BANK6   BANK7
  2893 ;;      Params:         8       0       0       0       0       0       0       0       0
  2894 ;;      Locals:        13       0       0       0       0       0       0       0       0
  2895 ;;      Temps:          4       0       0       0       0       0       0       0       0
  2896 ;;      Totals:        25       0       0       0       0       0       0       0       0
  2897 ;;Total ram usage:       25 bytes
  2898 ;; Hardware stack levels used:    1
  2899 ;; This function calls:
  2900 ;;		Nothing
  2901 ;; This function is called by:
  2902 ;;		_INT1_DefaultInterruptHandler
  2903 ;; This function uses a non-reentrant model
  2904 ;;
  2905                           
  2906                           	psect	text20
  2907  000536                     __ptext20:
  2908                           	callstack 0
  2909  000536                     ___flmul:
  2910                           	callstack 23
  2911  000536  5029               	movf	(___flmul@b+3)^0,w,c
  2912  000538  0B80               	andlw	128
  2913  00053A  6E32               	movwf	___flmul@sign^0,c
  2914  00053C  5029               	movf	(___flmul@b+3)^0,w,c
  2915  00053E  2429               	addwf	(___flmul@b+3)^0,w,c
  2916  000540  6E38               	movwf	___flmul@bexp^0,c
  2917  000542  AE28               	btfss	(___flmul@b+2)^0,7,c
  2918  000544  EFA6  F002         	goto	i2u173_41
  2919  000548  EFA8  F002         	goto	i2u173_40
  2920  00054C                     i2u173_41:
  2921  00054C  EFA9  F002         	goto	i2l2106
  2922  000550                     i2u173_40:
  2923  000550  8038               	bsf	___flmul@bexp^0,0,c
  2924  000552                     i2l2106:
  2925  000552  5038               	movf	___flmul@bexp^0,w,c
  2926  000554  B4D8               	btfsc	status,2,c
  2927  000556  EFAF  F002         	goto	i2u174_41
  2928  00055A  EFB1  F002         	goto	i2u174_40
  2929  00055E                     i2u174_41:
  2930  00055E  EFC4  F002         	goto	i2l2114
  2931  000562                     i2u174_40:
  2932  000562  2838               	incf	___flmul@bexp^0,w,c
  2933  000564  A4D8               	btfss	status,2,c
  2934  000566  EFB7  F002         	goto	i2u175_41
  2935  00056A  EFB9  F002         	goto	i2u175_40
  2936  00056E                     i2u175_41:
  2937  00056E  EFC1  F002         	goto	i2l2112
  2938  000572                     i2u175_40:
  2939  000572  0E00               	movlw	0
  2940  000574  6E26               	movwf	___flmul@b^0,c
  2941  000576  0E00               	movlw	0
  2942  000578  6E27               	movwf	(___flmul@b+1)^0,c
  2943  00057A  0E00               	movlw	0
  2944  00057C  6E28               	movwf	(___flmul@b+2)^0,c
  2945  00057E  0E00               	movlw	0
  2946  000580  6E29               	movwf	(___flmul@b+3)^0,c
  2947  000582                     i2l2112:
  2948  000582  8E28               	bsf	(___flmul@b+2)^0,7,c
  2949  000584  EFCC  F002         	goto	i2l2116
  2950  000588                     i2l2114:
  2951  000588  0E00               	movlw	0
  2952  00058A  6E26               	movwf	___flmul@b^0,c
  2953  00058C  0E00               	movlw	0
  2954  00058E  6E27               	movwf	(___flmul@b+1)^0,c
  2955  000590  0E00               	movlw	0
  2956  000592  6E28               	movwf	(___flmul@b+2)^0,c
  2957  000594  0E00               	movlw	0
  2958  000596  6E29               	movwf	(___flmul@b+3)^0,c
  2959  000598                     i2l2116:
  2960  000598  502D               	movf	(___flmul@a+3)^0,w,c
  2961  00059A  0B80               	andlw	128
  2962  00059C  1A32               	xorwf	___flmul@sign^0,f,c
  2963  00059E  502D               	movf	(___flmul@a+3)^0,w,c
  2964  0005A0  242D               	addwf	(___flmul@a+3)^0,w,c
  2965  0005A2  6E37               	movwf	___flmul@aexp^0,c
  2966  0005A4  AE2C               	btfss	(___flmul@a+2)^0,7,c
  2967  0005A6  EFD7  F002         	goto	i2u176_41
  2968  0005AA  EFD9  F002         	goto	i2u176_40
  2969  0005AE                     i2u176_41:
  2970  0005AE  EFDA  F002         	goto	i2l2124
  2971  0005B2                     i2u176_40:
  2972  0005B2  8037               	bsf	___flmul@aexp^0,0,c
  2973  0005B4                     i2l2124:
  2974  0005B4  5037               	movf	___flmul@aexp^0,w,c
  2975  0005B6  B4D8               	btfsc	status,2,c
  2976  0005B8  EFE0  F002         	goto	i2u177_41
  2977  0005BC  EFE2  F002         	goto	i2u177_40
  2978  0005C0                     i2u177_41:
  2979  0005C0  EFF5  F002         	goto	i2l2132
  2980  0005C4                     i2u177_40:
  2981  0005C4  2837               	incf	___flmul@aexp^0,w,c
  2982  0005C6  A4D8               	btfss	status,2,c
  2983  0005C8  EFE8  F002         	goto	i2u178_41
  2984  0005CC  EFEA  F002         	goto	i2u178_40
  2985  0005D0                     i2u178_41:
  2986  0005D0  EFF2  F002         	goto	i2l2130
  2987  0005D4                     i2u178_40:
  2988  0005D4  0E00               	movlw	0
  2989  0005D6  6E2A               	movwf	___flmul@a^0,c
  2990  0005D8  0E00               	movlw	0
  2991  0005DA  6E2B               	movwf	(___flmul@a+1)^0,c
  2992  0005DC  0E00               	movlw	0
  2993  0005DE  6E2C               	movwf	(___flmul@a+2)^0,c
  2994  0005E0  0E00               	movlw	0
  2995  0005E2  6E2D               	movwf	(___flmul@a+3)^0,c
  2996  0005E4                     i2l2130:
  2997  0005E4  8E2C               	bsf	(___flmul@a+2)^0,7,c
  2998  0005E6  EFFD  F002         	goto	i2l873
  2999  0005EA                     i2l2132:
  3000  0005EA  0E00               	movlw	0
  3001  0005EC  6E2A               	movwf	___flmul@a^0,c
  3002  0005EE  0E00               	movlw	0
  3003  0005F0  6E2B               	movwf	(___flmul@a+1)^0,c
  3004  0005F2  0E00               	movlw	0
  3005  0005F4  6E2C               	movwf	(___flmul@a+2)^0,c
  3006  0005F6  0E00               	movlw	0
  3007  0005F8  6E2D               	movwf	(___flmul@a+3)^0,c
  3008  0005FA                     i2l873:
  3009  0005FA  5037               	movf	___flmul@aexp^0,w,c
  3010  0005FC  B4D8               	btfsc	status,2,c
  3011  0005FE  EF03  F003         	goto	i2u179_41
  3012  000602  EF05  F003         	goto	i2u179_40
  3013  000606                     i2u179_41:
  3014  000606  EF0D  F003         	goto	i2l2136
  3015  00060A                     i2u179_40:
  3016  00060A  5038               	movf	___flmul@bexp^0,w,c
  3017  00060C  A4D8               	btfss	status,2,c
  3018  00060E  EF0B  F003         	goto	i2u180_41
  3019  000612  EF0D  F003         	goto	i2u180_40
  3020  000616                     i2u180_41:
  3021  000616  EF17  F003         	goto	i2l2140
  3022  00061A                     i2u180_40:
  3023  00061A                     i2l2136:
  3024  00061A  0E00               	movlw	0
  3025  00061C  6E26               	movwf	?___flmul^0,c
  3026  00061E  0E00               	movlw	0
  3027  000620  6E27               	movwf	(?___flmul+1)^0,c
  3028  000622  0E00               	movlw	0
  3029  000624  6E28               	movwf	(?___flmul+2)^0,c
  3030  000626  0E00               	movlw	0
  3031  000628  6E29               	movwf	(?___flmul+3)^0,c
  3032  00062A  EFAF  F004         	goto	i2l877
  3033  00062E                     i2l2140:
  3034  00062E  502C               	movf	(___flmul@a+2)^0,w,c
  3035  000630  0226               	mulwf	___flmul@b^0,c
  3036  000632  CFF3 F03D          	movff	prodl,___flmul@temp
  3037  000636  CFF4 F03E          	movff	prodh,___flmul@temp+1
  3038  00063A  503D               	movf	___flmul@temp^0,w,c
  3039  00063C  6E33               	movwf	___flmul@grs^0,c
  3040  00063E  6A34               	clrf	(___flmul@grs+1)^0,c
  3041  000640  6A35               	clrf	(___flmul@grs+2)^0,c
  3042  000642  6A36               	clrf	(___flmul@grs+3)^0,c
  3043  000644  503E               	movf	(___flmul@temp+1)^0,w,c
  3044  000646  6E39               	movwf	___flmul@prod^0,c
  3045  000648  6A3A               	clrf	(___flmul@prod+1)^0,c
  3046  00064A  6A3B               	clrf	(___flmul@prod+2)^0,c
  3047  00064C  6A3C               	clrf	(___flmul@prod+3)^0,c
  3048  00064E  502B               	movf	(___flmul@a+1)^0,w,c
  3049  000650  0227               	mulwf	(___flmul@b+1)^0,c
  3050  000652  CFF3 F03D          	movff	prodl,___flmul@temp
  3051  000656  CFF4 F03E          	movff	prodh,___flmul@temp+1
  3052  00065A  503D               	movf	___flmul@temp^0,w,c
  3053  00065C  2633               	addwf	___flmul@grs^0,f,c
  3054  00065E  0E00               	movlw	0
  3055  000660  2234               	addwfc	(___flmul@grs+1)^0,f,c
  3056  000662  2235               	addwfc	(___flmul@grs+2)^0,f,c
  3057  000664  2236               	addwfc	(___flmul@grs+3)^0,f,c
  3058  000666  503E               	movf	(___flmul@temp+1)^0,w,c
  3059  000668  2639               	addwf	___flmul@prod^0,f,c
  3060  00066A  0E00               	movlw	0
  3061  00066C  223A               	addwfc	(___flmul@prod+1)^0,f,c
  3062  00066E  223B               	addwfc	(___flmul@prod+2)^0,f,c
  3063  000670  223C               	addwfc	(___flmul@prod+3)^0,f,c
  3064  000672  502A               	movf	___flmul@a^0,w,c
  3065  000674  0228               	mulwf	(___flmul@b+2)^0,c
  3066  000676  CFF3 F03D          	movff	prodl,___flmul@temp
  3067  00067A  CFF4 F03E          	movff	prodh,___flmul@temp+1
  3068  00067E  503D               	movf	___flmul@temp^0,w,c
  3069  000680  2633               	addwf	___flmul@grs^0,f,c
  3070  000682  0E00               	movlw	0
  3071  000684  2234               	addwfc	(___flmul@grs+1)^0,f,c
  3072  000686  2235               	addwfc	(___flmul@grs+2)^0,f,c
  3073  000688  2236               	addwfc	(___flmul@grs+3)^0,f,c
  3074  00068A  503E               	movf	(___flmul@temp+1)^0,w,c
  3075  00068C  2639               	addwf	___flmul@prod^0,f,c
  3076  00068E  0E00               	movlw	0
  3077  000690  223A               	addwfc	(___flmul@prod+1)^0,f,c
  3078  000692  223B               	addwfc	(___flmul@prod+2)^0,f,c
  3079  000694  223C               	addwfc	(___flmul@prod+3)^0,f,c
  3080  000696  C035  F036         	movff	___flmul@grs+2,___flmul@grs+3
  3081  00069A  C034  F035         	movff	___flmul@grs+1,___flmul@grs+2
  3082  00069E  C033  F034         	movff	___flmul@grs,___flmul@grs+1
  3083  0006A2  6A33               	clrf	___flmul@grs^0,c
  3084  0006A4  502A               	movf	___flmul@a^0,w,c
  3085  0006A6  0227               	mulwf	(___flmul@b+1)^0,c
  3086  0006A8  CFF3 F03D          	movff	prodl,___flmul@temp
  3087  0006AC  CFF4 F03E          	movff	prodh,___flmul@temp+1
  3088  0006B0  503D               	movf	___flmul@temp^0,w,c
  3089  0006B2  2633               	addwf	___flmul@grs^0,f,c
  3090  0006B4  503E               	movf	(___flmul@temp+1)^0,w,c
  3091  0006B6  2234               	addwfc	(___flmul@grs+1)^0,f,c
  3092  0006B8  0E00               	movlw	0
  3093  0006BA  2235               	addwfc	(___flmul@grs+2)^0,f,c
  3094  0006BC  0E00               	movlw	0
  3095  0006BE  2236               	addwfc	(___flmul@grs+3)^0,f,c
  3096  0006C0  502B               	movf	(___flmul@a+1)^0,w,c
  3097  0006C2  0226               	mulwf	___flmul@b^0,c
  3098  0006C4  CFF3 F03D          	movff	prodl,___flmul@temp
  3099  0006C8  CFF4 F03E          	movff	prodh,___flmul@temp+1
  3100  0006CC  503D               	movf	___flmul@temp^0,w,c
  3101  0006CE  2633               	addwf	___flmul@grs^0,f,c
  3102  0006D0  503E               	movf	(___flmul@temp+1)^0,w,c
  3103  0006D2  2234               	addwfc	(___flmul@grs+1)^0,f,c
  3104  0006D4  0E00               	movlw	0
  3105  0006D6  2235               	addwfc	(___flmul@grs+2)^0,f,c
  3106  0006D8  0E00               	movlw	0
  3107  0006DA  2236               	addwfc	(___flmul@grs+3)^0,f,c
  3108  0006DC  C035  F036         	movff	___flmul@grs+2,___flmul@grs+3
  3109  0006E0  C034  F035         	movff	___flmul@grs+1,___flmul@grs+2
  3110  0006E4  C033  F034         	movff	___flmul@grs,___flmul@grs+1
  3111  0006E8  6A33               	clrf	___flmul@grs^0,c
  3112  0006EA  502A               	movf	___flmul@a^0,w,c
  3113  0006EC  0226               	mulwf	___flmul@b^0,c
  3114  0006EE  CFF3 F03D          	movff	prodl,___flmul@temp
  3115  0006F2  CFF4 F03E          	movff	prodh,___flmul@temp+1
  3116  0006F6  503D               	movf	___flmul@temp^0,w,c
  3117  0006F8  2633               	addwf	___flmul@grs^0,f,c
  3118  0006FA  503E               	movf	(___flmul@temp+1)^0,w,c
  3119  0006FC  2234               	addwfc	(___flmul@grs+1)^0,f,c
  3120  0006FE  0E00               	movlw	0
  3121  000700  2235               	addwfc	(___flmul@grs+2)^0,f,c
  3122  000702  0E00               	movlw	0
  3123  000704  2236               	addwfc	(___flmul@grs+3)^0,f,c
  3124  000706  502C               	movf	(___flmul@a+2)^0,w,c
  3125  000708  0227               	mulwf	(___flmul@b+1)^0,c
  3126  00070A  CFF3 F03D          	movff	prodl,___flmul@temp
  3127  00070E  CFF4 F03E          	movff	prodh,___flmul@temp+1
  3128  000712  503D               	movf	___flmul@temp^0,w,c
  3129  000714  2639               	addwf	___flmul@prod^0,f,c
  3130  000716  503E               	movf	(___flmul@temp+1)^0,w,c
  3131  000718  223A               	addwfc	(___flmul@prod+1)^0,f,c
  3132  00071A  0E00               	movlw	0
  3133  00071C  223B               	addwfc	(___flmul@prod+2)^0,f,c
  3134  00071E  0E00               	movlw	0
  3135  000720  223C               	addwfc	(___flmul@prod+3)^0,f,c
  3136  000722  502B               	movf	(___flmul@a+1)^0,w,c
  3137  000724  0228               	mulwf	(___flmul@b+2)^0,c
  3138  000726  CFF3 F03D          	movff	prodl,___flmul@temp
  3139  00072A  CFF4 F03E          	movff	prodh,___flmul@temp+1
  3140  00072E  503D               	movf	___flmul@temp^0,w,c
  3141  000730  2639               	addwf	___flmul@prod^0,f,c
  3142  000732  503E               	movf	(___flmul@temp+1)^0,w,c
  3143  000734  223A               	addwfc	(___flmul@prod+1)^0,f,c
  3144  000736  0E00               	movlw	0
  3145  000738  223B               	addwfc	(___flmul@prod+2)^0,f,c
  3146  00073A  0E00               	movlw	0
  3147  00073C  223C               	addwfc	(___flmul@prod+3)^0,f,c
  3148  00073E  502C               	movf	(___flmul@a+2)^0,w,c
  3149  000740  0228               	mulwf	(___flmul@b+2)^0,c
  3150  000742  CFF3 F03D          	movff	prodl,___flmul@temp
  3151  000746  CFF4 F03E          	movff	prodh,___flmul@temp+1
  3152  00074A  503D               	movf	___flmul@temp^0,w,c
  3153  00074C  6E2E               	movwf	??___flmul^0,c
  3154  00074E  503E               	movf	(___flmul@temp+1)^0,w,c
  3155  000750  6E2F               	movwf	(??___flmul+1)^0,c
  3156  000752  6A30               	clrf	(??___flmul+2)^0,c
  3157  000754  6A31               	clrf	(??___flmul+3)^0,c
  3158  000756  C030  F031         	movff	??___flmul+2,??___flmul+3
  3159  00075A  C02F  F030         	movff	??___flmul+1,??___flmul+2
  3160  00075E  C02E  F02F         	movff	??___flmul,??___flmul+1
  3161  000762  6A2E               	clrf	??___flmul^0,c
  3162  000764  502E               	movf	??___flmul^0,w,c
  3163  000766  2639               	addwf	___flmul@prod^0,f,c
  3164  000768  502F               	movf	(??___flmul+1)^0,w,c
  3165  00076A  223A               	addwfc	(___flmul@prod+1)^0,f,c
  3166  00076C  5030               	movf	(??___flmul+2)^0,w,c
  3167  00076E  223B               	addwfc	(___flmul@prod+2)^0,f,c
  3168  000770  5031               	movf	(??___flmul+3)^0,w,c
  3169  000772  223C               	addwfc	(___flmul@prod+3)^0,f,c
  3170  000774  C033  F02E         	movff	___flmul@grs,??___flmul
  3171  000778  C034  F02F         	movff	___flmul@grs+1,??___flmul+1
  3172  00077C  C035  F030         	movff	___flmul@grs+2,??___flmul+2
  3173  000780  C036  F031         	movff	___flmul@grs+3,??___flmul+3
  3174  000784  0E19               	movlw	25
  3175  000786  EFCA  F003         	goto	i2u181_40
  3176  00078A                     i2u181_45:
  3177  00078A  90D8               	bcf	status,0,c
  3178  00078C  3231               	rrcf	(??___flmul+3)^0,f,c
  3179  00078E  3230               	rrcf	(??___flmul+2)^0,f,c
  3180  000790  322F               	rrcf	(??___flmul+1)^0,f,c
  3181  000792  322E               	rrcf	??___flmul^0,f,c
  3182  000794                     i2u181_40:
  3183  000794  2EE8               	decfsz	wreg,f,c
  3184  000796  EFC5  F003         	goto	i2u181_45
  3185  00079A  502E               	movf	??___flmul^0,w,c
  3186  00079C  2639               	addwf	___flmul@prod^0,f,c
  3187  00079E  502F               	movf	(??___flmul+1)^0,w,c
  3188  0007A0  223A               	addwfc	(___flmul@prod+1)^0,f,c
  3189  0007A2  5030               	movf	(??___flmul+2)^0,w,c
  3190  0007A4  223B               	addwfc	(___flmul@prod+2)^0,f,c
  3191  0007A6  5031               	movf	(??___flmul+3)^0,w,c
  3192  0007A8  223C               	addwfc	(___flmul@prod+3)^0,f,c
  3193  0007AA  C035  F036         	movff	___flmul@grs+2,___flmul@grs+3
  3194  0007AE  C034  F035         	movff	___flmul@grs+1,___flmul@grs+2
  3195  0007B2  C033  F034         	movff	___flmul@grs,___flmul@grs+1
  3196  0007B6  6A33               	clrf	___flmul@grs^0,c
  3197  0007B8  5037               	movf	___flmul@aexp^0,w,c
  3198  0007BA  C038  F02E         	movff	___flmul@bexp,??___flmul
  3199  0007BE  6A2F               	clrf	(??___flmul+1)^0,c
  3200  0007C0  262E               	addwf	??___flmul^0,f,c
  3201  0007C2  0E00               	movlw	0
  3202  0007C4  222F               	addwfc	(??___flmul+1)^0,f,c
  3203  0007C6  0E82               	movlw	130
  3204  0007C8  242E               	addwf	??___flmul^0,w,c
  3205  0007CA  6E3D               	movwf	___flmul@temp^0,c
  3206  0007CC  0EFF               	movlw	255
  3207  0007CE  202F               	addwfc	(??___flmul+1)^0,w,c
  3208  0007D0  6E3E               	movwf	(___flmul@temp+1)^0,c
  3209  0007D2  EF00  F004         	goto	i2l2188
  3210  0007D6                     i2l2182:
  3211  0007D6  90D8               	bcf	status,0,c
  3212  0007D8  3639               	rlcf	___flmul@prod^0,f,c
  3213  0007DA  363A               	rlcf	(___flmul@prod+1)^0,f,c
  3214  0007DC  363B               	rlcf	(___flmul@prod+2)^0,f,c
  3215  0007DE  363C               	rlcf	(___flmul@prod+3)^0,f,c
  3216  0007E0  AE36               	btfss	(___flmul@grs+3)^0,7,c
  3217  0007E2  EFF5  F003         	goto	i2u182_41
  3218  0007E6  EFF7  F003         	goto	i2u182_40
  3219  0007EA                     i2u182_41:
  3220  0007EA  EFF8  F003         	goto	i2l880
  3221  0007EE                     i2u182_40:
  3222  0007EE  8039               	bsf	___flmul@prod^0,0,c
  3223  0007F0                     i2l880:
  3224  0007F0  90D8               	bcf	status,0,c
  3225  0007F2  3633               	rlcf	___flmul@grs^0,f,c
  3226  0007F4  3634               	rlcf	(___flmul@grs+1)^0,f,c
  3227  0007F6  3635               	rlcf	(___flmul@grs+2)^0,f,c
  3228  0007F8  3636               	rlcf	(___flmul@grs+3)^0,f,c
  3229  0007FA  063D               	decf	___flmul@temp^0,f,c
  3230  0007FC  A0D8               	btfss	status,0,c
  3231  0007FE  063E               	decf	(___flmul@temp+1)^0,f,c
  3232  000800                     i2l2188:
  3233  000800  AE3B               	btfss	(___flmul@prod+2)^0,7,c
  3234  000802  EF05  F004         	goto	i2u183_41
  3235  000806  EF07  F004         	goto	i2u183_40
  3236  00080A                     i2u183_41:
  3237  00080A  EFEB  F003         	goto	i2l2182
  3238  00080E                     i2u183_40:
  3239  00080E  0E00               	movlw	0
  3240  000810  6E37               	movwf	___flmul@aexp^0,c
  3241  000812  AE36               	btfss	(___flmul@grs+3)^0,7,c
  3242  000814  EF0E  F004         	goto	i2u184_41
  3243  000818  EF10  F004         	goto	i2u184_40
  3244  00081C                     i2u184_41:
  3245  00081C  EF34  F004         	goto	i2l882
  3246  000820                     i2u184_40:
  3247  000820  0EFF               	movlw	255
  3248  000822  1433               	andwf	___flmul@grs^0,w,c
  3249  000824  6E2E               	movwf	??___flmul^0,c
  3250  000826  0EFF               	movlw	255
  3251  000828  1434               	andwf	(___flmul@grs+1)^0,w,c
  3252  00082A  6E2F               	movwf	(??___flmul+1)^0,c
  3253  00082C  0EFF               	movlw	255
  3254  00082E  1435               	andwf	(___flmul@grs+2)^0,w,c
  3255  000830  6E30               	movwf	(??___flmul+2)^0,c
  3256  000832  0E7F               	movlw	127
  3257  000834  1436               	andwf	(___flmul@grs+3)^0,w,c
  3258  000836  6E31               	movwf	(??___flmul+3)^0,c
  3259  000838  502E               	movf	??___flmul^0,w,c
  3260  00083A  102F               	iorwf	(??___flmul+1)^0,w,c
  3261  00083C  1030               	iorwf	(??___flmul+2)^0,w,c
  3262  00083E  1031               	iorwf	(??___flmul+3)^0,w,c
  3263  000840  B4D8               	btfsc	status,2,c
  3264  000842  EF25  F004         	goto	i2u185_41
  3265  000846  EF27  F004         	goto	i2u185_40
  3266  00084A                     i2u185_41:
  3267  00084A  EF2B  F004         	goto	i2l883
  3268  00084E                     i2u185_40:
  3269  00084E                     i2l2196:
  3270  00084E  0E01               	movlw	1
  3271  000850  6E37               	movwf	___flmul@aexp^0,c
  3272  000852  EF34  F004         	goto	i2l882
  3273  000856                     i2l883:
  3274  000856  A039               	btfss	___flmul@prod^0,0,c
  3275  000858  EF30  F004         	goto	i2u186_41
  3276  00085C  EF32  F004         	goto	i2u186_40
  3277  000860                     i2u186_41:
  3278  000860  EF34  F004         	goto	i2l882
  3279  000864                     i2u186_40:
  3280  000864  EF27  F004         	goto	i2l2196
  3281  000868                     i2l882:
  3282  000868  5037               	movf	___flmul@aexp^0,w,c
  3283  00086A  B4D8               	btfsc	status,2,c
  3284  00086C  EF3A  F004         	goto	i2u187_41
  3285  000870  EF3C  F004         	goto	i2u187_40
  3286  000874                     i2u187_41:
  3287  000874  EF60  F004         	goto	i2l2208
  3288  000878                     i2u187_40:
  3289  000878  0E01               	movlw	1
  3290  00087A  2639               	addwf	___flmul@prod^0,f,c
  3291  00087C  0E00               	movlw	0
  3292  00087E  223A               	addwfc	(___flmul@prod+1)^0,f,c
  3293  000880  223B               	addwfc	(___flmul@prod+2)^0,f,c
  3294  000882  223C               	addwfc	(___flmul@prod+3)^0,f,c
  3295  000884  A03C               	btfss	(___flmul@prod+3)^0,0,c
  3296  000886  EF47  F004         	goto	i2u188_41
  3297  00088A  EF49  F004         	goto	i2u188_40
  3298  00088E                     i2u188_41:
  3299  00088E  EF60  F004         	goto	i2l2208
  3300  000892                     i2u188_40:
  3301  000892  C039  F02E         	movff	___flmul@prod,??___flmul
  3302  000896  C03A  F02F         	movff	___flmul@prod+1,??___flmul+1
  3303  00089A  C03B  F030         	movff	___flmul@prod+2,??___flmul+2
  3304  00089E  C03C  F031         	movff	___flmul@prod+3,??___flmul+3
  3305  0008A2  3431               	rlcf	(??___flmul+3)^0,w,c
  3306  0008A4  3231               	rrcf	(??___flmul+3)^0,f,c
  3307  0008A6  3230               	rrcf	(??___flmul+2)^0,f,c
  3308  0008A8  322F               	rrcf	(??___flmul+1)^0,f,c
  3309  0008AA  322E               	rrcf	??___flmul^0,f,c
  3310  0008AC  C02E  F039         	movff	??___flmul,___flmul@prod
  3311  0008B0  C02F  F03A         	movff	??___flmul+1,___flmul@prod+1
  3312  0008B4  C030  F03B         	movff	??___flmul+2,___flmul@prod+2
  3313  0008B8  C031  F03C         	movff	??___flmul+3,___flmul@prod+3
  3314  0008BC  4A3D               	infsnz	___flmul@temp^0,f,c
  3315  0008BE  2A3E               	incf	(___flmul@temp+1)^0,f,c
  3316  0008C0                     i2l2208:
  3317  0008C0  BE3E               	btfsc	(___flmul@temp+1)^0,7,c
  3318  0008C2  EF6B  F004         	goto	i2u189_41
  3319  0008C6  503E               	movf	(___flmul@temp+1)^0,w,c
  3320  0008C8  E108               	bnz	i2u189_40
  3321  0008CA  283D               	incf	___flmul@temp^0,w,c
  3322  0008CC  A0D8               	btfss	status,0,c
  3323  0008CE  EF6B  F004         	goto	i2u189_41
  3324  0008D2  EF6D  F004         	goto	i2u189_40
  3325  0008D6                     i2u189_41:
  3326  0008D6  EF77  F004         	goto	i2l2212
  3327  0008DA                     i2u189_40:
  3328  0008DA  0E00               	movlw	0
  3329  0008DC  6E39               	movwf	___flmul@prod^0,c
  3330  0008DE  0E00               	movlw	0
  3331  0008E0  6E3A               	movwf	(___flmul@prod+1)^0,c
  3332  0008E2  0E80               	movlw	128
  3333  0008E4  6E3B               	movwf	(___flmul@prod+2)^0,c
  3334  0008E6  0E7F               	movlw	127
  3335  0008E8  6E3C               	movwf	(___flmul@prod+3)^0,c
  3336  0008EA  EFA5  F004         	goto	i2l2224
  3337  0008EE                     i2l2212:
  3338  0008EE  BE3E               	btfsc	(___flmul@temp+1)^0,7,c
  3339  0008F0  EF84  F004         	goto	i2u190_40
  3340  0008F4  503E               	movf	(___flmul@temp+1)^0,w,c
  3341  0008F6  E106               	bnz	i2u190_41
  3342  0008F8  043D               	decf	___flmul@temp^0,w,c
  3343  0008FA  B0D8               	btfsc	status,0,c
  3344  0008FC  EF82  F004         	goto	i2u190_41
  3345  000900  EF84  F004         	goto	i2u190_40
  3346  000904                     i2u190_41:
  3347  000904  EF90  F004         	goto	i2l890
  3348  000908                     i2u190_40:
  3349  000908  0E00               	movlw	0
  3350  00090A  6E39               	movwf	___flmul@prod^0,c
  3351  00090C  0E00               	movlw	0
  3352  00090E  6E3A               	movwf	(___flmul@prod+1)^0,c
  3353  000910  0E00               	movlw	0
  3354  000912  6E3B               	movwf	(___flmul@prod+2)^0,c
  3355  000914  0E00               	movlw	0
  3356  000916  6E3C               	movwf	(___flmul@prod+3)^0,c
  3357  000918  0E00               	movlw	0
  3358  00091A  6E32               	movwf	___flmul@sign^0,c
  3359  00091C  EFA5  F004         	goto	i2l2224
  3360  000920                     i2l890:
  3361  000920  C03D  F038         	movff	___flmul@temp,___flmul@bexp
  3362  000924  0EFF               	movlw	255
  3363  000926  1639               	andwf	___flmul@prod^0,f,c
  3364  000928  0EFF               	movlw	255
  3365  00092A  163A               	andwf	(___flmul@prod+1)^0,f,c
  3366  00092C  0E7F               	movlw	127
  3367  00092E  163B               	andwf	(___flmul@prod+2)^0,f,c
  3368  000930  0E00               	movlw	0
  3369  000932  163C               	andwf	(___flmul@prod+3)^0,f,c
  3370  000934  A038               	btfss	___flmul@bexp^0,0,c
  3371  000936  EF9F  F004         	goto	i2u191_41
  3372  00093A  EFA1  F004         	goto	i2u191_40
  3373  00093E                     i2u191_41:
  3374  00093E  EFA2  F004         	goto	i2l2222
  3375  000942                     i2u191_40:
  3376  000942  8E3B               	bsf	(___flmul@prod+2)^0,7,c
  3377  000944                     i2l2222:
  3378  000944  90D8               	bcf	status,0,c
  3379  000946  3038               	rrcf	___flmul@bexp^0,w,c
  3380  000948  6E3C               	movwf	(___flmul@prod+3)^0,c
  3381  00094A                     i2l2224:
  3382  00094A  5032               	movf	___flmul@sign^0,w,c
  3383  00094C  123C               	iorwf	(___flmul@prod+3)^0,f,c
  3384  00094E  C039  F026         	movff	___flmul@prod,?___flmul
  3385  000952  C03A  F027         	movff	___flmul@prod+1,?___flmul+1
  3386  000956  C03B  F028         	movff	___flmul@prod+2,?___flmul+2
  3387  00095A  C03C  F029         	movff	___flmul@prod+3,?___flmul+3
  3388  00095E                     i2l877:
  3389  00095E  0012               	return		;funcret
  3390  000960                     __end_of___flmul:
  3391                           	callstack 0
  3392                           
  3393 ;; *************** function ___fldiv *****************
  3394 ;; Defined at:
  3395 ;;		line 11 in file "C:\Program Files\Microchip\xc8\v2.30\pic\sources\c99\common\sprcdiv.c"
  3396 ;; Parameters:    Size  Location     Type
  3397 ;;  b               4    0[COMRAM] unsigned char 
  3398 ;;  a               4    4[COMRAM] unsigned char 
  3399 ;; Auto vars:     Size  Location     Type
  3400 ;;  grs             4   19[COMRAM] unsigned long 
  3401 ;;  rem             4   12[COMRAM] unsigned long 
  3402 ;;  new_exp         2   17[COMRAM] short 
  3403 ;;  aexp            1   24[COMRAM] unsigned char 
  3404 ;;  bexp            1   23[COMRAM] unsigned char 
  3405 ;;  sign            1   16[COMRAM] unsigned char 
  3406 ;; Return value:  Size  Location     Type
  3407 ;;                  4    0[COMRAM] unsigned char 
  3408 ;; Registers used:
  3409 ;;		wreg, status,2, status,0
  3410 ;; Tracked objects:
  3411 ;;		On entry : 0/0
  3412 ;;		On exit  : 0/0
  3413 ;;		Unchanged: 0/0
  3414 ;; Data sizes:     COMRAM   BANK0   BANK1   BANK2   BANK3   BANK4   BANK5   BANK6   BANK7
  3415 ;;      Params:         8       0       0       0       0       0       0       0       0
  3416 ;;      Locals:        13       0       0       0       0       0       0       0       0
  3417 ;;      Temps:          4       0       0       0       0       0       0       0       0
  3418 ;;      Totals:        25       0       0       0       0       0       0       0       0
  3419 ;;Total ram usage:       25 bytes
  3420 ;; Hardware stack levels used:    1
  3421 ;; This function calls:
  3422 ;;		Nothing
  3423 ;; This function is called by:
  3424 ;;		_INT1_DefaultInterruptHandler
  3425 ;; This function uses a non-reentrant model
  3426 ;;
  3427                           
  3428                           	psect	text21
  3429  000960                     __ptext21:
  3430                           	callstack 0
  3431  000960                     ___fldiv:
  3432                           	callstack 23
  3433  000960  5004               	movf	(___fldiv@b+3)^0,w,c
  3434  000962  0B80               	andlw	128
  3435  000964  6E11               	movwf	___fldiv@sign^0,c
  3436  000966  5004               	movf	(___fldiv@b+3)^0,w,c
  3437  000968  2404               	addwf	(___fldiv@b+3)^0,w,c
  3438  00096A  6E18               	movwf	___fldiv@bexp^0,c
  3439  00096C  AE03               	btfss	(___fldiv@b+2)^0,7,c
  3440  00096E  EFBB  F004         	goto	i2u150_41
  3441  000972  EFBD  F004         	goto	i2u150_40
  3442  000976                     i2u150_41:
  3443  000976  EFBE  F004         	goto	i2l1968
  3444  00097A                     i2u150_40:
  3445  00097A  8018               	bsf	___fldiv@bexp^0,0,c
  3446  00097C                     i2l1968:
  3447  00097C  5018               	movf	___fldiv@bexp^0,w,c
  3448  00097E  B4D8               	btfsc	status,2,c
  3449  000980  EFC4  F004         	goto	i2u151_41
  3450  000984  EFC6  F004         	goto	i2u151_40
  3451  000988                     i2u151_41:
  3452  000988  EFDB  F004         	goto	i2l1978
  3453  00098C                     i2u151_40:
  3454  00098C  2818               	incf	___fldiv@bexp^0,w,c
  3455  00098E  A4D8               	btfss	status,2,c
  3456  000990  EFCC  F004         	goto	i2u152_41
  3457  000994  EFCE  F004         	goto	i2u152_40
  3458  000998                     i2u152_41:
  3459  000998  EFD6  F004         	goto	i2l1974
  3460  00099C                     i2u152_40:
  3461  00099C  0E00               	movlw	0
  3462  00099E  6E01               	movwf	___fldiv@b^0,c
  3463  0009A0  0E00               	movlw	0
  3464  0009A2  6E02               	movwf	(___fldiv@b+1)^0,c
  3465  0009A4  0E00               	movlw	0
  3466  0009A6  6E03               	movwf	(___fldiv@b+2)^0,c
  3467  0009A8  0E00               	movlw	0
  3468  0009AA  6E04               	movwf	(___fldiv@b+3)^0,c
  3469  0009AC                     i2l1974:
  3470  0009AC  8E03               	bsf	(___fldiv@b+2)^0,7,c
  3471  0009AE  0E00               	movlw	0
  3472  0009B0  6E04               	movwf	(___fldiv@b+3)^0,c
  3473  0009B2  EFE3  F004         	goto	i2l1980
  3474  0009B6                     i2l1978:
  3475  0009B6  0E00               	movlw	0
  3476  0009B8  6E01               	movwf	___fldiv@b^0,c
  3477  0009BA  0E00               	movlw	0
  3478  0009BC  6E02               	movwf	(___fldiv@b+1)^0,c
  3479  0009BE  0E00               	movlw	0
  3480  0009C0  6E03               	movwf	(___fldiv@b+2)^0,c
  3481  0009C2  0E00               	movlw	0
  3482  0009C4  6E04               	movwf	(___fldiv@b+3)^0,c
  3483  0009C6                     i2l1980:
  3484  0009C6  5008               	movf	(___fldiv@a+3)^0,w,c
  3485  0009C8  0B80               	andlw	128
  3486  0009CA  1A11               	xorwf	___fldiv@sign^0,f,c
  3487  0009CC  5008               	movf	(___fldiv@a+3)^0,w,c
  3488  0009CE  2408               	addwf	(___fldiv@a+3)^0,w,c
  3489  0009D0  6E19               	movwf	___fldiv@aexp^0,c
  3490  0009D2  AE07               	btfss	(___fldiv@a+2)^0,7,c
  3491  0009D4  EFEE  F004         	goto	i2u153_41
  3492  0009D8  EFF0  F004         	goto	i2u153_40
  3493  0009DC                     i2u153_41:
  3494  0009DC  EFF1  F004         	goto	i2l1988
  3495  0009E0                     i2u153_40:
  3496  0009E0  8019               	bsf	___fldiv@aexp^0,0,c
  3497  0009E2                     i2l1988:
  3498  0009E2  5019               	movf	___fldiv@aexp^0,w,c
  3499  0009E4  B4D8               	btfsc	status,2,c
  3500  0009E6  EFF7  F004         	goto	i2u154_41
  3501  0009EA  EFF9  F004         	goto	i2u154_40
  3502  0009EE                     i2u154_41:
  3503  0009EE  EF0E  F005         	goto	i2l1998
  3504  0009F2                     i2u154_40:
  3505  0009F2  2819               	incf	___fldiv@aexp^0,w,c
  3506  0009F4  A4D8               	btfss	status,2,c
  3507  0009F6  EFFF  F004         	goto	i2u155_41
  3508  0009FA  EF01  F005         	goto	i2u155_40
  3509  0009FE                     i2u155_41:
  3510  0009FE  EF09  F005         	goto	i2l1994
  3511  000A02                     i2u155_40:
  3512  000A02  0E00               	movlw	0
  3513  000A04  6E05               	movwf	___fldiv@a^0,c
  3514  000A06  0E00               	movlw	0
  3515  000A08  6E06               	movwf	(___fldiv@a+1)^0,c
  3516  000A0A  0E00               	movlw	0
  3517  000A0C  6E07               	movwf	(___fldiv@a+2)^0,c
  3518  000A0E  0E00               	movlw	0
  3519  000A10  6E08               	movwf	(___fldiv@a+3)^0,c
  3520  000A12                     i2l1994:
  3521  000A12  8E07               	bsf	(___fldiv@a+2)^0,7,c
  3522  000A14  0E00               	movlw	0
  3523  000A16  6E08               	movwf	(___fldiv@a+3)^0,c
  3524  000A18  EF16  F005         	goto	i2l2000
  3525  000A1C                     i2l1998:
  3526  000A1C  0E00               	movlw	0
  3527  000A1E  6E05               	movwf	___fldiv@a^0,c
  3528  000A20  0E00               	movlw	0
  3529  000A22  6E06               	movwf	(___fldiv@a+1)^0,c
  3530  000A24  0E00               	movlw	0
  3531  000A26  6E07               	movwf	(___fldiv@a+2)^0,c
  3532  000A28  0E00               	movlw	0
  3533  000A2A  6E08               	movwf	(___fldiv@a+3)^0,c
  3534  000A2C                     i2l2000:
  3535  000A2C  5005               	movf	___fldiv@a^0,w,c
  3536  000A2E  1006               	iorwf	(___fldiv@a+1)^0,w,c
  3537  000A30  1007               	iorwf	(___fldiv@a+2)^0,w,c
  3538  000A32  1008               	iorwf	(___fldiv@a+3)^0,w,c
  3539  000A34  A4D8               	btfss	status,2,c
  3540  000A36  EF1F  F005         	goto	i2u156_41
  3541  000A3A  EF21  F005         	goto	i2u156_40
  3542  000A3E                     i2u156_41:
  3543  000A3E  EF39  F005         	goto	i2l2012
  3544  000A42                     i2u156_40:
  3545  000A42  0E00               	movlw	0
  3546  000A44  6E01               	movwf	___fldiv@b^0,c
  3547  000A46  0E00               	movlw	0
  3548  000A48  6E02               	movwf	(___fldiv@b+1)^0,c
  3549  000A4A  0E00               	movlw	0
  3550  000A4C  6E03               	movwf	(___fldiv@b+2)^0,c
  3551  000A4E  0E00               	movlw	0
  3552  000A50  6E04               	movwf	(___fldiv@b+3)^0,c
  3553  000A52  0E80               	movlw	128
  3554  000A54  1203               	iorwf	(___fldiv@b+2)^0,f,c
  3555  000A56  0E7F               	movlw	127
  3556  000A58  1204               	iorwf	(___fldiv@b+3)^0,f,c
  3557  000A5A                     i2l2006:
  3558  000A5A  5011               	movf	___fldiv@sign^0,w,c
  3559  000A5C  1204               	iorwf	(___fldiv@b+3)^0,f,c
  3560  000A5E  C001  F001         	movff	___fldiv@b,?___fldiv
  3561  000A62  C002  F002         	movff	___fldiv@b+1,?___fldiv+1
  3562  000A66  C003  F003         	movff	___fldiv@b+2,?___fldiv+2
  3563  000A6A  C004  F004         	movff	___fldiv@b+3,?___fldiv+3
  3564  000A6E  EF7C  F006         	goto	i2l841
  3565  000A72                     i2l2012:
  3566  000A72  5018               	movf	___fldiv@bexp^0,w,c
  3567  000A74  A4D8               	btfss	status,2,c
  3568  000A76  EF3F  F005         	goto	i2u157_41
  3569  000A7A  EF41  F005         	goto	i2u157_40
  3570  000A7E                     i2u157_41:
  3571  000A7E  EF4B  F005         	goto	i2l2020
  3572  000A82                     i2u157_40:
  3573  000A82  0E00               	movlw	0
  3574  000A84  6E01               	movwf	?___fldiv^0,c
  3575  000A86  0E00               	movlw	0
  3576  000A88  6E02               	movwf	(?___fldiv+1)^0,c
  3577  000A8A  0E00               	movlw	0
  3578  000A8C  6E03               	movwf	(?___fldiv+2)^0,c
  3579  000A8E  0E00               	movlw	0
  3580  000A90  6E04               	movwf	(?___fldiv+3)^0,c
  3581  000A92  EF7C  F006         	goto	i2l841
  3582  000A96                     i2l2020:
  3583  000A96  5019               	movf	___fldiv@aexp^0,w,c
  3584  000A98  C018  F009         	movff	___fldiv@bexp,??___fldiv
  3585  000A9C  6A0A               	clrf	(??___fldiv+1)^0,c
  3586  000A9E  5E09               	subwf	??___fldiv^0,f,c
  3587  000AA0  0E00               	movlw	0
  3588  000AA2  5A0A               	subwfb	(??___fldiv+1)^0,f,c
  3589  000AA4  0E7F               	movlw	127
  3590  000AA6  2409               	addwf	??___fldiv^0,w,c
  3591  000AA8  6E12               	movwf	___fldiv@new_exp^0,c
  3592  000AAA  0E00               	movlw	0
  3593  000AAC  200A               	addwfc	(??___fldiv+1)^0,w,c
  3594  000AAE  6E13               	movwf	(___fldiv@new_exp+1)^0,c
  3595  000AB0  C001  F00D         	movff	___fldiv@b,___fldiv@rem
  3596  000AB4  C002  F00E         	movff	___fldiv@b+1,___fldiv@rem+1
  3597  000AB8  C003  F00F         	movff	___fldiv@b+2,___fldiv@rem+2
  3598  000ABC  C004  F010         	movff	___fldiv@b+3,___fldiv@rem+3
  3599  000AC0  0E00               	movlw	0
  3600  000AC2  6E01               	movwf	___fldiv@b^0,c
  3601  000AC4  0E00               	movlw	0
  3602  000AC6  6E02               	movwf	(___fldiv@b+1)^0,c
  3603  000AC8  0E00               	movlw	0
  3604  000ACA  6E03               	movwf	(___fldiv@b+2)^0,c
  3605  000ACC  0E00               	movlw	0
  3606  000ACE  6E04               	movwf	(___fldiv@b+3)^0,c
  3607  000AD0  0E00               	movlw	0
  3608  000AD2  6E14               	movwf	___fldiv@grs^0,c
  3609  000AD4  0E00               	movlw	0
  3610  000AD6  6E15               	movwf	(___fldiv@grs+1)^0,c
  3611  000AD8  0E00               	movlw	0
  3612  000ADA  6E16               	movwf	(___fldiv@grs+2)^0,c
  3613  000ADC  0E00               	movlw	0
  3614  000ADE  6E17               	movwf	(___fldiv@grs+3)^0,c
  3615  000AE0  0E00               	movlw	0
  3616  000AE2  6E19               	movwf	___fldiv@aexp^0,c
  3617  000AE4  EFAC  F005         	goto	i2l843
  3618  000AE8                     i2l2030:
  3619  000AE8  5019               	movf	___fldiv@aexp^0,w,c
  3620  000AEA  B4D8               	btfsc	status,2,c
  3621  000AEC  EF7A  F005         	goto	i2u158_41
  3622  000AF0  EF7C  F005         	goto	i2u158_40
  3623  000AF4                     i2u158_41:
  3624  000AF4  EF93  F005         	goto	i2l2038
  3625  000AF8                     i2u158_40:
  3626  000AF8  90D8               	bcf	status,0,c
  3627  000AFA  360D               	rlcf	___fldiv@rem^0,f,c
  3628  000AFC  360E               	rlcf	(___fldiv@rem+1)^0,f,c
  3629  000AFE  360F               	rlcf	(___fldiv@rem+2)^0,f,c
  3630  000B00  3610               	rlcf	(___fldiv@rem+3)^0,f,c
  3631  000B02  90D8               	bcf	status,0,c
  3632  000B04  3601               	rlcf	___fldiv@b^0,f,c
  3633  000B06  3602               	rlcf	(___fldiv@b+1)^0,f,c
  3634  000B08  3603               	rlcf	(___fldiv@b+2)^0,f,c
  3635  000B0A  3604               	rlcf	(___fldiv@b+3)^0,f,c
  3636  000B0C  AE17               	btfss	(___fldiv@grs+3)^0,7,c
  3637  000B0E  EF8B  F005         	goto	i2u159_41
  3638  000B12  EF8D  F005         	goto	i2u159_40
  3639  000B16                     i2u159_41:
  3640  000B16  EF8E  F005         	goto	i2l846
  3641  000B1A                     i2u159_40:
  3642  000B1A  8001               	bsf	___fldiv@b^0,0,c
  3643  000B1C                     i2l846:
  3644  000B1C  90D8               	bcf	status,0,c
  3645  000B1E  3614               	rlcf	___fldiv@grs^0,f,c
  3646  000B20  3615               	rlcf	(___fldiv@grs+1)^0,f,c
  3647  000B22  3616               	rlcf	(___fldiv@grs+2)^0,f,c
  3648  000B24  3617               	rlcf	(___fldiv@grs+3)^0,f,c
  3649  000B26                     i2l2038:
  3650  000B26  5005               	movf	___fldiv@a^0,w,c
  3651  000B28  5C0D               	subwf	___fldiv@rem^0,w,c
  3652  000B2A  5006               	movf	(___fldiv@a+1)^0,w,c
  3653  000B2C  580E               	subwfb	(___fldiv@rem+1)^0,w,c
  3654  000B2E  5007               	movf	(___fldiv@a+2)^0,w,c
  3655  000B30  580F               	subwfb	(___fldiv@rem+2)^0,w,c
  3656  000B32  5008               	movf	(___fldiv@a+3)^0,w,c
  3657  000B34  5810               	subwfb	(___fldiv@rem+3)^0,w,c
  3658  000B36  A0D8               	btfss	status,0,c
  3659  000B38  EFA0  F005         	goto	i2u160_41
  3660  000B3C  EFA2  F005         	goto	i2u160_40
  3661  000B40                     i2u160_41:
  3662  000B40  EFAB  F005         	goto	i2l2044
  3663  000B44                     i2u160_40:
  3664  000B44  8C17               	bsf	(___fldiv@grs+3)^0,6,c
  3665  000B46  5005               	movf	___fldiv@a^0,w,c
  3666  000B48  5E0D               	subwf	___fldiv@rem^0,f,c
  3667  000B4A  5006               	movf	(___fldiv@a+1)^0,w,c
  3668  000B4C  5A0E               	subwfb	(___fldiv@rem+1)^0,f,c
  3669  000B4E  5007               	movf	(___fldiv@a+2)^0,w,c
  3670  000B50  5A0F               	subwfb	(___fldiv@rem+2)^0,f,c
  3671  000B52  5008               	movf	(___fldiv@a+3)^0,w,c
  3672  000B54  5A10               	subwfb	(___fldiv@rem+3)^0,f,c
  3673  000B56                     i2l2044:
  3674  000B56  2A19               	incf	___fldiv@aexp^0,f,c
  3675  000B58                     i2l843:
  3676  000B58  0E19               	movlw	25
  3677  000B5A  6419               	cpfsgt	___fldiv@aexp^0,c
  3678  000B5C  EFB2  F005         	goto	i2u161_41
  3679  000B60  EFB4  F005         	goto	i2u161_40
  3680  000B64                     i2u161_41:
  3681  000B64  EF74  F005         	goto	i2l2030
  3682  000B68                     i2u161_40:
  3683  000B68  500D               	movf	___fldiv@rem^0,w,c
  3684  000B6A  100E               	iorwf	(___fldiv@rem+1)^0,w,c
  3685  000B6C  100F               	iorwf	(___fldiv@rem+2)^0,w,c
  3686  000B6E  1010               	iorwf	(___fldiv@rem+3)^0,w,c
  3687  000B70  B4D8               	btfsc	status,2,c
  3688  000B72  EFBD  F005         	goto	i2u162_41
  3689  000B76  EFBF  F005         	goto	i2u162_40
  3690  000B7A                     i2u162_41:
  3691  000B7A  EFD7  F005         	goto	i2l2056
  3692  000B7E                     i2u162_40:
  3693  000B7E  8014               	bsf	___fldiv@grs^0,0,c
  3694  000B80  EFD7  F005         	goto	i2l2056
  3695  000B84                     i2l2050:
  3696  000B84  90D8               	bcf	status,0,c
  3697  000B86  3601               	rlcf	___fldiv@b^0,f,c
  3698  000B88  3602               	rlcf	(___fldiv@b+1)^0,f,c
  3699  000B8A  3603               	rlcf	(___fldiv@b+2)^0,f,c
  3700  000B8C  3604               	rlcf	(___fldiv@b+3)^0,f,c
  3701  000B8E  AE17               	btfss	(___fldiv@grs+3)^0,7,c
  3702  000B90  EFCC  F005         	goto	i2u163_41
  3703  000B94  EFCE  F005         	goto	i2u163_40
  3704  000B98                     i2u163_41:
  3705  000B98  EFCF  F005         	goto	i2l852
  3706  000B9C                     i2u163_40:
  3707  000B9C  8001               	bsf	___fldiv@b^0,0,c
  3708  000B9E                     i2l852:
  3709  000B9E  90D8               	bcf	status,0,c
  3710  000BA0  3614               	rlcf	___fldiv@grs^0,f,c
  3711  000BA2  3615               	rlcf	(___fldiv@grs+1)^0,f,c
  3712  000BA4  3616               	rlcf	(___fldiv@grs+2)^0,f,c
  3713  000BA6  3617               	rlcf	(___fldiv@grs+3)^0,f,c
  3714  000BA8  0612               	decf	___fldiv@new_exp^0,f,c
  3715  000BAA  A0D8               	btfss	status,0,c
  3716  000BAC  0613               	decf	(___fldiv@new_exp+1)^0,f,c
  3717  000BAE                     i2l2056:
  3718  000BAE  AE03               	btfss	(___fldiv@b+2)^0,7,c
  3719  000BB0  EFDC  F005         	goto	i2u164_41
  3720  000BB4  EFDE  F005         	goto	i2u164_40
  3721  000BB8                     i2u164_41:
  3722  000BB8  EFC2  F005         	goto	i2l2050
  3723  000BBC                     i2u164_40:
  3724  000BBC  0E00               	movlw	0
  3725  000BBE  6E19               	movwf	___fldiv@aexp^0,c
  3726  000BC0  AE17               	btfss	(___fldiv@grs+3)^0,7,c
  3727  000BC2  EFE5  F005         	goto	i2u165_41
  3728  000BC6  EFE7  F005         	goto	i2u165_40
  3729  000BCA                     i2u165_41:
  3730  000BCA  EF0B  F006         	goto	i2l854
  3731  000BCE                     i2u165_40:
  3732  000BCE  0EFF               	movlw	255
  3733  000BD0  1414               	andwf	___fldiv@grs^0,w,c
  3734  000BD2  6E09               	movwf	??___fldiv^0,c
  3735  000BD4  0EFF               	movlw	255
  3736  000BD6  1415               	andwf	(___fldiv@grs+1)^0,w,c
  3737  000BD8  6E0A               	movwf	(??___fldiv+1)^0,c
  3738  000BDA  0EFF               	movlw	255
  3739  000BDC  1416               	andwf	(___fldiv@grs+2)^0,w,c
  3740  000BDE  6E0B               	movwf	(??___fldiv+2)^0,c
  3741  000BE0  0E7F               	movlw	127
  3742  000BE2  1417               	andwf	(___fldiv@grs+3)^0,w,c
  3743  000BE4  6E0C               	movwf	(??___fldiv+3)^0,c
  3744  000BE6  5009               	movf	??___fldiv^0,w,c
  3745  000BE8  100A               	iorwf	(??___fldiv+1)^0,w,c
  3746  000BEA  100B               	iorwf	(??___fldiv+2)^0,w,c
  3747  000BEC  100C               	iorwf	(??___fldiv+3)^0,w,c
  3748  000BEE  B4D8               	btfsc	status,2,c
  3749  000BF0  EFFC  F005         	goto	i2u166_41
  3750  000BF4  EFFE  F005         	goto	i2u166_40
  3751  000BF8                     i2u166_41:
  3752  000BF8  EF02  F006         	goto	i2l855
  3753  000BFC                     i2u166_40:
  3754  000BFC                     i2l2064:
  3755  000BFC  0E01               	movlw	1
  3756  000BFE  6E19               	movwf	___fldiv@aexp^0,c
  3757  000C00  EF0B  F006         	goto	i2l854
  3758  000C04                     i2l855:
  3759  000C04  A001               	btfss	___fldiv@b^0,0,c
  3760  000C06  EF07  F006         	goto	i2u167_41
  3761  000C0A  EF09  F006         	goto	i2u167_40
  3762  000C0E                     i2u167_41:
  3763  000C0E  EF0B  F006         	goto	i2l854
  3764  000C12                     i2u167_40:
  3765  000C12  EFFE  F005         	goto	i2l2064
  3766  000C16                     i2l854:
  3767  000C16  5019               	movf	___fldiv@aexp^0,w,c
  3768  000C18  B4D8               	btfsc	status,2,c
  3769  000C1A  EF11  F006         	goto	i2u168_41
  3770  000C1E  EF13  F006         	goto	i2u168_40
  3771  000C22                     i2u168_41:
  3772  000C22  EF37  F006         	goto	i2l2076
  3773  000C26                     i2u168_40:
  3774  000C26  0E01               	movlw	1
  3775  000C28  2601               	addwf	___fldiv@b^0,f,c
  3776  000C2A  0E00               	movlw	0
  3777  000C2C  2202               	addwfc	(___fldiv@b+1)^0,f,c
  3778  000C2E  2203               	addwfc	(___fldiv@b+2)^0,f,c
  3779  000C30  2204               	addwfc	(___fldiv@b+3)^0,f,c
  3780  000C32  A004               	btfss	(___fldiv@b+3)^0,0,c
  3781  000C34  EF1E  F006         	goto	i2u169_41
  3782  000C38  EF20  F006         	goto	i2u169_40
  3783  000C3C                     i2u169_41:
  3784  000C3C  EF37  F006         	goto	i2l2076
  3785  000C40                     i2u169_40:
  3786  000C40  C001  F009         	movff	___fldiv@b,??___fldiv
  3787  000C44  C002  F00A         	movff	___fldiv@b+1,??___fldiv+1
  3788  000C48  C003  F00B         	movff	___fldiv@b+2,??___fldiv+2
  3789  000C4C  C004  F00C         	movff	___fldiv@b+3,??___fldiv+3
  3790  000C50  340C               	rlcf	(??___fldiv+3)^0,w,c
  3791  000C52  320C               	rrcf	(??___fldiv+3)^0,f,c
  3792  000C54  320B               	rrcf	(??___fldiv+2)^0,f,c
  3793  000C56  320A               	rrcf	(??___fldiv+1)^0,f,c
  3794  000C58  3209               	rrcf	??___fldiv^0,f,c
  3795  000C5A  C009  F001         	movff	??___fldiv,___fldiv@b
  3796  000C5E  C00A  F002         	movff	??___fldiv+1,___fldiv@b+1
  3797  000C62  C00B  F003         	movff	??___fldiv+2,___fldiv@b+2
  3798  000C66  C00C  F004         	movff	??___fldiv+3,___fldiv@b+3
  3799  000C6A  4A12               	infsnz	___fldiv@new_exp^0,f,c
  3800  000C6C  2A13               	incf	(___fldiv@new_exp+1)^0,f,c
  3801  000C6E                     i2l2076:
  3802  000C6E  BE13               	btfsc	(___fldiv@new_exp+1)^0,7,c
  3803  000C70  EF42  F006         	goto	i2u170_41
  3804  000C74  5013               	movf	(___fldiv@new_exp+1)^0,w,c
  3805  000C76  E108               	bnz	i2u170_40
  3806  000C78  2812               	incf	___fldiv@new_exp^0,w,c
  3807  000C7A  A0D8               	btfss	status,0,c
  3808  000C7C  EF42  F006         	goto	i2u170_41
  3809  000C80  EF44  F006         	goto	i2u170_40
  3810  000C84                     i2u170_41:
  3811  000C84  EF4F  F006         	goto	i2l2080
  3812  000C88                     i2u170_40:
  3813  000C88  0E00               	movlw	0
  3814  000C8A  6E13               	movwf	(___fldiv@new_exp+1)^0,c
  3815  000C8C  6812               	setf	___fldiv@new_exp^0,c
  3816  000C8E  0E00               	movlw	0
  3817  000C90  6E01               	movwf	___fldiv@b^0,c
  3818  000C92  0E00               	movlw	0
  3819  000C94  6E02               	movwf	(___fldiv@b+1)^0,c
  3820  000C96  0E00               	movlw	0
  3821  000C98  6E03               	movwf	(___fldiv@b+2)^0,c
  3822  000C9A  0E00               	movlw	0
  3823  000C9C  6E04               	movwf	(___fldiv@b+3)^0,c
  3824  000C9E                     i2l2080:
  3825  000C9E  BE13               	btfsc	(___fldiv@new_exp+1)^0,7,c
  3826  000CA0  EF5C  F006         	goto	i2u171_40
  3827  000CA4  5013               	movf	(___fldiv@new_exp+1)^0,w,c
  3828  000CA6  E106               	bnz	i2u171_41
  3829  000CA8  0412               	decf	___fldiv@new_exp^0,w,c
  3830  000CAA  B0D8               	btfsc	status,0,c
  3831  000CAC  EF5A  F006         	goto	i2u171_41
  3832  000CB0  EF5C  F006         	goto	i2u171_40
  3833  000CB4                     i2u171_41:
  3834  000CB4  EF6A  F006         	goto	i2l2084
  3835  000CB8                     i2u171_40:
  3836  000CB8  0E00               	movlw	0
  3837  000CBA  6E13               	movwf	(___fldiv@new_exp+1)^0,c
  3838  000CBC  0E00               	movlw	0
  3839  000CBE  6E12               	movwf	___fldiv@new_exp^0,c
  3840  000CC0  0E00               	movlw	0
  3841  000CC2  6E01               	movwf	___fldiv@b^0,c
  3842  000CC4  0E00               	movlw	0
  3843  000CC6  6E02               	movwf	(___fldiv@b+1)^0,c
  3844  000CC8  0E00               	movlw	0
  3845  000CCA  6E03               	movwf	(___fldiv@b+2)^0,c
  3846  000CCC  0E00               	movlw	0
  3847  000CCE  6E04               	movwf	(___fldiv@b+3)^0,c
  3848  000CD0  0E00               	movlw	0
  3849  000CD2  6E11               	movwf	___fldiv@sign^0,c
  3850  000CD4                     i2l2084:
  3851  000CD4  C012  F018         	movff	___fldiv@new_exp,___fldiv@bexp
  3852  000CD8  A018               	btfss	___fldiv@bexp^0,0,c
  3853  000CDA  EF71  F006         	goto	i2u172_41
  3854  000CDE  EF73  F006         	goto	i2u172_40
  3855  000CE2                     i2u172_41:
  3856  000CE2  EF76  F006         	goto	i2l2090
  3857  000CE6                     i2u172_40:
  3858  000CE6  8E03               	bsf	(___fldiv@b+2)^0,7,c
  3859  000CE8  EF77  F006         	goto	i2l2092
  3860  000CEC                     i2l2090:
  3861  000CEC  9E03               	bcf	(___fldiv@b+2)^0,7,c
  3862  000CEE                     i2l2092:
  3863  000CEE  90D8               	bcf	status,0,c
  3864  000CF0  3018               	rrcf	___fldiv@bexp^0,w,c
  3865  000CF2  6E04               	movwf	(___fldiv@b+3)^0,c
  3866  000CF4  EF2D  F005         	goto	i2l2006
  3867  000CF8                     i2l841:
  3868  000CF8  0012               	return		;funcret
  3869  000CFA                     __end_of___fldiv:
  3870                           	callstack 0
  3871                           
  3872 ;; *************** function _TMR0_StopTimer *****************
  3873 ;; Defined at:
  3874 ;;		line 96 in file "mcc_generated_files/tmr0.c"
  3875 ;; Parameters:    Size  Location     Type
  3876 ;;		None
  3877 ;; Auto vars:     Size  Location     Type
  3878 ;;		None
  3879 ;; Return value:  Size  Location     Type
  3880 ;;                  1    wreg      void 
  3881 ;; Registers used:
  3882 ;;		None
  3883 ;; Tracked objects:
  3884 ;;		On entry : 0/0
  3885 ;;		On exit  : 0/0
  3886 ;;		Unchanged: 0/0
  3887 ;; Data sizes:     COMRAM   BANK0   BANK1   BANK2   BANK3   BANK4   BANK5   BANK6   BANK7
  3888 ;;      Params:         0       0       0       0       0       0       0       0       0
  3889 ;;      Locals:         0       0       0       0       0       0       0       0       0
  3890 ;;      Temps:          0       0       0       0       0       0       0       0       0
  3891 ;;      Totals:         0       0       0       0       0       0       0       0       0
  3892 ;;Total ram usage:        0 bytes
  3893 ;; Hardware stack levels used:    1
  3894 ;; This function calls:
  3895 ;;		Nothing
  3896 ;; This function is called by:
  3897 ;;		_INT1_DefaultInterruptHandler
  3898 ;; This function uses a non-reentrant model
  3899 ;;
  3900                           
  3901                           	psect	text22
  3902  001532                     __ptext22:
  3903                           	callstack 0
  3904  001532                     _TMR0_StopTimer:
  3905                           	callstack 23
  3906  001532                     
  3907                           ;mcc_generated_files/tmr0.c: 99:     T0CONbits.TMR0ON = 0;
  3908  001532  9ED5               	bcf	213,7,c	;volatile
  3909  001534  0012               	return		;funcret
  3910  001536                     __end_of_TMR0_StopTimer:
  3911                           	callstack 0
  3912                           
  3913 ;; *************** function _TMR0_Reload *****************
  3914 ;; Defined at:
  3915 ;;		line 122 in file "mcc_generated_files/tmr0.c"
  3916 ;; Parameters:    Size  Location     Type
  3917 ;;		None
  3918 ;; Auto vars:     Size  Location     Type
  3919 ;;		None
  3920 ;; Return value:  Size  Location     Type
  3921 ;;                  1    wreg      void 
  3922 ;; Registers used:
  3923 ;;		wreg, status,2
  3924 ;; Tracked objects:
  3925 ;;		On entry : 0/0
  3926 ;;		On exit  : 0/0
  3927 ;;		Unchanged: 0/0
  3928 ;; Data sizes:     COMRAM   BANK0   BANK1   BANK2   BANK3   BANK4   BANK5   BANK6   BANK7
  3929 ;;      Params:         0       0       0       0       0       0       0       0       0
  3930 ;;      Locals:         0       0       0       0       0       0       0       0       0
  3931 ;;      Temps:          0       0       0       0       0       0       0       0       0
  3932 ;;      Totals:         0       0       0       0       0       0       0       0       0
  3933 ;;Total ram usage:        0 bytes
  3934 ;; Hardware stack levels used:    1
  3935 ;; This function calls:
  3936 ;;		Nothing
  3937 ;; This function is called by:
  3938 ;;		_INT1_DefaultInterruptHandler
  3939 ;; This function uses a non-reentrant model
  3940 ;;
  3941                           
  3942                           	psect	text23
  3943  00150E                     __ptext23:
  3944                           	callstack 0
  3945  00150E                     _TMR0_Reload:
  3946                           	callstack 23
  3947  00150E                     
  3948                           ;mcc_generated_files/tmr0.c: 125:     TMR0H = timer0ReloadVal >> 8;
  3949  00150E  5058               	movf	(_timer0ReloadVal+1)^0,w,c	;volatile
  3950  001510  6ED7               	movwf	215,c	;volatile
  3951  001512                     
  3952                           ;mcc_generated_files/tmr0.c: 126:     TMR0L = (uint8_t) timer0ReloadVal;
  3953  001512  C057  FFD6         	movff	_timer0ReloadVal,4054	;volatile
  3954  001516  0012               	return		;funcret
  3955  001518                     __end_of_TMR0_Reload:
  3956                           	callstack 0
  3957                           
  3958 ;; *************** function _TMR0_ReadTimer *****************
  3959 ;; Defined at:
  3960 ;;		line 102 in file "mcc_generated_files/tmr0.c"
  3961 ;; Parameters:    Size  Location     Type
  3962 ;;		None
  3963 ;; Auto vars:     Size  Location     Type
  3964 ;;  readVal         2    4[COMRAM] unsigned short 
  3965 ;;  readValHigh     1    7[COMRAM] unsigned char 
  3966 ;;  readValLow      1    6[COMRAM] unsigned char 
  3967 ;; Return value:  Size  Location     Type
  3968 ;;                  2    0[COMRAM] unsigned short 
  3969 ;; Registers used:
  3970 ;;		wreg, status,2
  3971 ;; Tracked objects:
  3972 ;;		On entry : 0/0
  3973 ;;		On exit  : 0/0
  3974 ;;		Unchanged: 0/0
  3975 ;; Data sizes:     COMRAM   BANK0   BANK1   BANK2   BANK3   BANK4   BANK5   BANK6   BANK7
  3976 ;;      Params:         2       0       0       0       0       0       0       0       0
  3977 ;;      Locals:         4       0       0       0       0       0       0       0       0
  3978 ;;      Temps:          2       0       0       0       0       0       0       0       0
  3979 ;;      Totals:         8       0       0       0       0       0       0       0       0
  3980 ;;Total ram usage:        8 bytes
  3981 ;; Hardware stack levels used:    1
  3982 ;; This function calls:
  3983 ;;		Nothing
  3984 ;; This function is called by:
  3985 ;;		_INT1_DefaultInterruptHandler
  3986 ;; This function uses a non-reentrant model
  3987 ;;
  3988                           
  3989                           	psect	text24
  3990  0014B4                     __ptext24:
  3991                           	callstack 0
  3992  0014B4                     _TMR0_ReadTimer:
  3993                           	callstack 23
  3994  0014B4                     
  3995                           ;mcc_generated_files/tmr0.c: 104:     uint16_t readVal;;mcc_generated_files/tmr0.c: 105:
      +                               uint8_t readValLow;;mcc_generated_files/tmr0.c: 106:     uint8_t readValHigh;;mcc_g
      +                          enerated_files/tmr0.c: 108:     readValLow = TMR0L;
  3996  0014B4  CFD6 F007          	movff	4054,TMR0_ReadTimer@readValLow	;volatile
  3997                           
  3998                           ;mcc_generated_files/tmr0.c: 109:     readValHigh = TMR0H;
  3999  0014B8  CFD7 F008          	movff	4055,TMR0_ReadTimer@readValHigh	;volatile
  4000  0014BC                     
  4001                           ;mcc_generated_files/tmr0.c: 110:     readVal = ((uint16_t)readValHigh << 8) + readValLo
      +                          w;
  4002  0014BC  5008               	movf	TMR0_ReadTimer@readValHigh^0,w,c
  4003  0014BE  6E03               	movwf	??_TMR0_ReadTimer^0,c
  4004  0014C0  5007               	movf	TMR0_ReadTimer@readValLow^0,w,c
  4005  0014C2  6E05               	movwf	TMR0_ReadTimer@readVal^0,c
  4006  0014C4  C003  F006         	movff	??_TMR0_ReadTimer,TMR0_ReadTimer@readVal+1
  4007  0014C8                     
  4008                           ;mcc_generated_files/tmr0.c: 112:     return readVal;
  4009  0014C8  C005  F001         	movff	TMR0_ReadTimer@readVal,?_TMR0_ReadTimer
  4010  0014CC  C006  F002         	movff	TMR0_ReadTimer@readVal+1,?_TMR0_ReadTimer+1
  4011  0014D0  0012               	return		;funcret
  4012  0014D2                     __end_of_TMR0_ReadTimer:
  4013                           	callstack 0
  4014                           
  4015 ;; *************** function _INT0_ISR *****************
  4016 ;; Defined at:
  4017 ;;		line 35 in file "mcc_generated_files/ext_int.c"
  4018 ;; Parameters:    Size  Location     Type
  4019 ;;		None
  4020 ;; Auto vars:     Size  Location     Type
  4021 ;;		None
  4022 ;; Return value:  Size  Location     Type
  4023 ;;                  1    wreg      void 
  4024 ;; Registers used:
  4025 ;;		wreg, status,2, status,0, pclath, tosl, cstack
  4026 ;; Tracked objects:
  4027 ;;		On entry : 0/0
  4028 ;;		On exit  : 0/0
  4029 ;;		Unchanged: 0/0
  4030 ;; Data sizes:     COMRAM   BANK0   BANK1   BANK2   BANK3   BANK4   BANK5   BANK6   BANK7
  4031 ;;      Params:         0       0       0       0       0       0       0       0       0
  4032 ;;      Locals:         0       0       0       0       0       0       0       0       0
  4033 ;;      Temps:          0       0       0       0       0       0       0       0       0
  4034 ;;      Totals:         0       0       0       0       0       0       0       0       0
  4035 ;;Total ram usage:        0 bytes
  4036 ;; Hardware stack levels used:    1
  4037 ;; Hardware stack levels required when called:    3
  4038 ;; This function calls:
  4039 ;;		_INT0_CallBack
  4040 ;; This function is called by:
  4041 ;;		_INTERRUPT_InterruptManager
  4042 ;; This function uses a non-reentrant model
  4043 ;;
  4044                           
  4045                           	psect	text25
  4046  001520                     __ptext25:
  4047                           	callstack 0
  4048  001520                     _INT0_ISR:
  4049                           	callstack 23
  4050  001520                     
  4051                           ;mcc_generated_files/ext_int.c: 37:     (INTCONbits.INT0IF = 0);
  4052  001520  92F2               	bcf	242,1,c	;volatile
  4053  001522                     
  4054                           ;mcc_generated_files/ext_int.c: 40:     INT0_CallBack();
  4055  001522  ECDD  F009         	call	_INT0_CallBack	;wreg free
  4056  001526  0012               	return		;funcret
  4057  001528                     __end_of_INT0_ISR:
  4058                           	callstack 0
  4059                           
  4060 ;; *************** function _INT0_CallBack *****************
  4061 ;; Defined at:
  4062 ;;		line 44 in file "mcc_generated_files/ext_int.c"
  4063 ;; Parameters:    Size  Location     Type
  4064 ;;		None
  4065 ;; Auto vars:     Size  Location     Type
  4066 ;;		None
  4067 ;; Return value:  Size  Location     Type
  4068 ;;                  1    wreg      void 
  4069 ;; Registers used:
  4070 ;;		wreg, status,2, status,0, pclath, tosl, cstack
  4071 ;; Tracked objects:
  4072 ;;		On entry : 0/0
  4073 ;;		On exit  : 0/0
  4074 ;;		Unchanged: 0/0
  4075 ;; Data sizes:     COMRAM   BANK0   BANK1   BANK2   BANK3   BANK4   BANK5   BANK6   BANK7
  4076 ;;      Params:         0       0       0       0       0       0       0       0       0
  4077 ;;      Locals:         0       0       0       0       0       0       0       0       0
  4078 ;;      Temps:          0       0       0       0       0       0       0       0       0
  4079 ;;      Totals:         0       0       0       0       0       0       0       0       0
  4080 ;;Total ram usage:        0 bytes
  4081 ;; Hardware stack levels used:    1
  4082 ;; Hardware stack levels required when called:    2
  4083 ;; This function calls:
  4084 ;;		Absolute function
  4085 ;;		_INT0_DefaultInterruptHandler
  4086 ;; This function is called by:
  4087 ;;		_INT0_ISR
  4088 ;; This function uses a non-reentrant model
  4089 ;;
  4090                           
  4091                           	psect	text26
  4092  0013BA                     __ptext26:
  4093                           	callstack 0
  4094  0013BA                     _INT0_CallBack:
  4095                           	callstack 23
  4096  0013BA                     
  4097                           ;mcc_generated_files/ext_int.c: 47:     if(INT0_InterruptHandler)
  4098  0013BA  0100               	movlb	0	; () banked
  4099  0013BC  5168               	movf	_INT0_InterruptHandler& (0+255),w,b
  4100  0013BE  1169               	iorwf	(_INT0_InterruptHandler+1)& (0+255),w,b
  4101  0013C0  B4D8               	btfsc	status,2,c
  4102  0013C2  EFE5  F009         	goto	i2u212_41
  4103  0013C6  EFE7  F009         	goto	i2u212_40
  4104  0013CA                     i2u212_41:
  4105  0013CA  EFF4  F009         	goto	i2l180
  4106  0013CE                     i2u212_40:
  4107  0013CE                     
  4108                           ; BSR set to: 0
  4109                           ;mcc_generated_files/ext_int.c: 48:     {;mcc_generated_files/ext_int.c: 49:         INT
      +                          0_InterruptHandler();
  4110  0013CE  D802               	call	i2u213_48
  4111  0013D0  EFF4  F009         	goto	i2u213_49
  4112  0013D4                     i2u213_48:
  4113  0013D4  0005               	push	
  4114  0013D6  6EFA               	movwf	pclath,c
  4115  0013D8  5168               	movf	_INT0_InterruptHandler& (0+255),w,b
  4116  0013DA  6EFD               	movwf	tosl,c
  4117  0013DC  5169               	movf	(_INT0_InterruptHandler+1)& (0+255),w,b
  4118  0013DE  6EFE               	movwf	tosh,c
  4119  0013E0  50F8               	movf	tblptru,w,c
  4120  0013E2  6EFF               	movwf	tosu,c
  4121  0013E4  50FA               	movf	pclath,w,c
  4122  0013E6  0012               	return		;indir
  4123  0013E8                     i2u213_49:
  4124  0013E8                     i2l180:
  4125  0013E8  0012               	return		;funcret
  4126  0013EA                     __end_of_INT0_CallBack:
  4127                           	callstack 0
  4128                           
  4129 ;; *************** function _INT0_DefaultInterruptHandler *****************
  4130 ;; Defined at:
  4131 ;;		line 57 in file "mcc_generated_files/ext_int.c"
  4132 ;; Parameters:    Size  Location     Type
  4133 ;;		None
  4134 ;; Auto vars:     Size  Location     Type
  4135 ;;		None
  4136 ;; Return value:  Size  Location     Type
  4137 ;;                  1    wreg      void 
  4138 ;; Registers used:
  4139 ;;		cstack
  4140 ;; Tracked objects:
  4141 ;;		On entry : 0/0
  4142 ;;		On exit  : 0/0
  4143 ;;		Unchanged: 0/0
  4144 ;; Data sizes:     COMRAM   BANK0   BANK1   BANK2   BANK3   BANK4   BANK5   BANK6   BANK7
  4145 ;;      Params:         0       0       0       0       0       0       0       0       0
  4146 ;;      Locals:         0       0       0       0       0       0       0       0       0
  4147 ;;      Temps:          0       0       0       0       0       0       0       0       0
  4148 ;;      Totals:         0       0       0       0       0       0       0       0       0
  4149 ;;Total ram usage:        0 bytes
  4150 ;; Hardware stack levels used:    1
  4151 ;; Hardware stack levels required when called:    1
  4152 ;; This function calls:
  4153 ;;		_TMR0_StartTimer
  4154 ;; This function is called by:
  4155 ;;		_EXT_INT_Initialize
  4156 ;;		_INT0_CallBack
  4157 ;; This function uses a non-reentrant model
  4158 ;;
  4159                           
  4160                           	psect	text27
  4161  001528                     __ptext27:
  4162                           	callstack 0
  4163  001528                     _INT0_DefaultInterruptHandler:
  4164                           	callstack 23
  4165  001528                     
  4166                           ;mcc_generated_files/ext_int.c: 59:     TMR0_StartTimer();
  4167  001528  EC9B  F00A         	call	_TMR0_StartTimer	;wreg free
  4168  00152C  0012               	return		;funcret
  4169  00152E                     __end_of_INT0_DefaultInterruptHandler:
  4170                           	callstack 0
  4171                           
  4172 ;; *************** function _TMR0_StartTimer *****************
  4173 ;; Defined at:
  4174 ;;		line 90 in file "mcc_generated_files/tmr0.c"
  4175 ;; Parameters:    Size  Location     Type
  4176 ;;		None
  4177 ;; Auto vars:     Size  Location     Type
  4178 ;;		None
  4179 ;; Return value:  Size  Location     Type
  4180 ;;                  1    wreg      void 
  4181 ;; Registers used:
  4182 ;;		None
  4183 ;; Tracked objects:
  4184 ;;		On entry : 0/0
  4185 ;;		On exit  : 0/0
  4186 ;;		Unchanged: 0/0
  4187 ;; Data sizes:     COMRAM   BANK0   BANK1   BANK2   BANK3   BANK4   BANK5   BANK6   BANK7
  4188 ;;      Params:         0       0       0       0       0       0       0       0       0
  4189 ;;      Locals:         0       0       0       0       0       0       0       0       0
  4190 ;;      Temps:          0       0       0       0       0       0       0       0       0
  4191 ;;      Totals:         0       0       0       0       0       0       0       0       0
  4192 ;;Total ram usage:        0 bytes
  4193 ;; Hardware stack levels used:    1
  4194 ;; This function calls:
  4195 ;;		Nothing
  4196 ;; This function is called by:
  4197 ;;		_INT0_DefaultInterruptHandler
  4198 ;; This function uses a non-reentrant model
  4199 ;;
  4200                           
  4201                           	psect	text28
  4202  001536                     __ptext28:
  4203                           	callstack 0
  4204  001536                     _TMR0_StartTimer:
  4205                           	callstack 23
  4206  001536                     
  4207                           ;mcc_generated_files/tmr0.c: 93:     T0CONbits.TMR0ON = 1;
  4208  001536  8ED5               	bsf	213,7,c	;volatile
  4209  001538  0012               	return		;funcret
  4210  00153A                     __end_of_TMR0_StartTimer:
  4211                           	callstack 0
  4212  0000                     
  4213                           	psect	text29
  4214  000000                     __ptext29:
  4215                           	callstack 0
  4216  000000                     
  4217                           	psect	rparam
  4218  0000                     
  4219                           	psect	temp
  4220  000059                     btemp:
  4221                           	callstack 0
  4222  000059                     	ds	1
  4223  0000                     int$flags	set	btemp
  4224  0000                     wtemp8	set	btemp+1
  4225  0000                     ttemp5	set	btemp+1
  4226  0000                     ttemp6	set	btemp+4
  4227  0000                     ttemp7	set	btemp+8
  4228                           
  4229                           	psect	idloc
  4230                           
  4231                           ;Config register IDLOC0 @ 0x200000
  4232                           ;	unspecified, using default values
  4233  200000                     	org	2097152
  4234  200000  FF                 	db	255
  4235                           
  4236                           ;Config register IDLOC1 @ 0x200001
  4237                           ;	unspecified, using default values
  4238  200001                     	org	2097153
  4239  200001  FF                 	db	255
  4240                           
  4241                           ;Config register IDLOC2 @ 0x200002
  4242                           ;	unspecified, using default values
  4243  200002                     	org	2097154
  4244  200002  FF                 	db	255
  4245                           
  4246                           ;Config register IDLOC3 @ 0x200003
  4247                           ;	unspecified, using default values
  4248  200003                     	org	2097155
  4249  200003  FF                 	db	255
  4250                           
  4251                           ;Config register IDLOC4 @ 0x200004
  4252                           ;	unspecified, using default values
  4253  200004                     	org	2097156
  4254  200004  FF                 	db	255
  4255                           
  4256                           ;Config register IDLOC5 @ 0x200005
  4257                           ;	unspecified, using default values
  4258  200005                     	org	2097157
  4259  200005  FF                 	db	255
  4260                           
  4261                           ;Config register IDLOC6 @ 0x200006
  4262                           ;	unspecified, using default values
  4263  200006                     	org	2097158
  4264  200006  FF                 	db	255
  4265                           
  4266                           ;Config register IDLOC7 @ 0x200007
  4267                           ;	unspecified, using default values
  4268  200007                     	org	2097159
  4269  200007  FF                 	db	255
  4270                           
  4271                           	psect	config
  4272                           
  4273                           ;Config register CONFIG1L @ 0x300000
  4274                           ;	PLL Selection
  4275                           ;	PLLSEL = PLL4X, 4x clock multiplier
  4276                           ;	PLL Enable Configuration bit
  4277                           ;	CFGPLLEN = OFF, PLL Disabled (firmware controlled)
  4278                           ;	CPU System Clock Postscaler
  4279                           ;	CPUDIV = NOCLKDIV, CPU uses system clock (no divide)
  4280                           ;	Low Speed USB mode with 48 MHz system clock
  4281                           ;	LS48MHZ = SYS24X4, System clock at 24 MHz, USB clock divider is set to 4
  4282  300000                     	org	3145728
  4283  300000  00                 	db	0
  4284                           
  4285                           ;Config register CONFIG1H @ 0x300001
  4286                           ;	Oscillator Selection
  4287                           ;	FOSC = INTOSCIO, Internal oscillator
  4288                           ;	Primary Oscillator Shutdown
  4289                           ;	PCLKEN = ON, Primary oscillator enabled
  4290                           ;	Fail-Safe Clock Monitor
  4291                           ;	FCMEN = OFF, Fail-Safe Clock Monitor disabled
  4292                           ;	Internal/External Oscillator Switchover
  4293                           ;	IESO = OFF, Oscillator Switchover mode disabled
  4294  300001                     	org	3145729
  4295  300001  28                 	db	40
  4296                           
  4297                           ;Config register CONFIG2L @ 0x300002
  4298                           ;	Power-up Timer Enable
  4299                           ;	nPWRTEN = OFF, Power up timer disabled
  4300                           ;	Brown-out Reset Enable
  4301                           ;	BOREN = SBORDIS, BOR enabled in hardware (SBOREN is ignored)
  4302                           ;	Brown-out Reset Voltage
  4303                           ;	BORV = 190, BOR set to 1.9V nominal
  4304                           ;	Low-Power Brown-out Reset
  4305                           ;	nLPBOR = OFF, Low-Power Brown-out Reset disabled
  4306  300002                     	org	3145730
  4307  300002  5F                 	db	95
  4308                           
  4309                           ;Config register CONFIG2H @ 0x300003
  4310                           ;	Watchdog Timer Enable bits
  4311                           ;	WDTEN = OFF, WDT disabled in hardware (SWDTEN ignored)
  4312                           ;	Watchdog Timer Postscaler
  4313                           ;	WDTPS = 32768, 1:32768
  4314  300003                     	org	3145731
  4315  300003  3C                 	db	60
  4316                           
  4317                           ; Padding undefined space
  4318  300004                     	org	3145732
  4319  300004  FF                 	db	255
  4320                           
  4321                           ;Config register CONFIG3H @ 0x300005
  4322                           ;	CCP2 MUX bit
  4323                           ;	CCP2MX = RC1, CCP2 input/output is multiplexed with RC1
  4324                           ;	PORTB A/D Enable bit
  4325                           ;	PBADEN = ON, PORTB<5:0> pins are configured as analog input channels on Reset
  4326                           ;	Timer3 Clock Input MUX bit
  4327                           ;	T3CMX = RC0, T3CKI function is on RC0
  4328                           ;	SDO Output MUX bit
  4329                           ;	SDOMX = RB3, SDO function is on RB3
  4330                           ;	Master Clear Reset Pin Enable
  4331                           ;	MCLRE = ON, MCLR pin enabled; RE3 input disabled
  4332  300005                     	org	3145733
  4333  300005  D3                 	db	211
  4334                           
  4335                           ;Config register CONFIG4L @ 0x300006
  4336                           ;	Stack Full/Underflow Reset
  4337                           ;	STVREN = ON, Stack full/underflow will cause Reset
  4338                           ;	Single-Supply ICSP Enable bit
  4339                           ;	LVP = OFF, Single-Supply ICSP disabled
  4340                           ;	Dedicated In-Circuit Debug/Programming Port Enable
  4341                           ;	ICPRT = OFF, ICPORT disabled
  4342                           ;	Extended Instruction Set Enable bit
  4343                           ;	XINST = OFF, Instruction set extension and Indexed Addressing mode disabled
  4344                           ;	Background Debugger Enable bit
  4345                           ;	DEBUG = OFF, Background debugger disabled, RB6 and RB7 configured as general purpose I
      +                          /O pins
  4346  300006                     	org	3145734
  4347  300006  81                 	db	129
  4348                           
  4349                           ; Padding undefined space
  4350  300007                     	org	3145735
  4351  300007  FF                 	db	255
  4352                           
  4353                           ;Config register CONFIG5L @ 0x300008
  4354                           ;	Block 0 Code Protect
  4355                           ;	CP0 = OFF, Block 0 is not code-protected
  4356                           ;	Block 1 Code Protect
  4357                           ;	CP1 = OFF, Block 1 is not code-protected
  4358                           ;	Block 2 Code Protect
  4359                           ;	CP2 = OFF, Block 2 is not code-protected
  4360                           ;	Block 3 Code Protect
  4361                           ;	CP3 = OFF, Block 3 is not code-protected
  4362  300008                     	org	3145736
  4363  300008  0F                 	db	15
  4364                           
  4365                           ;Config register CONFIG5H @ 0x300009
  4366                           ;	Boot Block Code Protect
  4367                           ;	CPB = OFF, Boot block is not code-protected
  4368                           ;	Data EEPROM Code Protect
  4369                           ;	CPD = OFF, Data EEPROM is not code-protected
  4370  300009                     	org	3145737
  4371  300009  C0                 	db	192
  4372                           
  4373                           ;Config register CONFIG6L @ 0x30000A
  4374                           ;	Block 0 Write Protect
  4375                           ;	WRT0 = OFF, Block 0 (0800-1FFFh) is not write-protected
  4376                           ;	Block 1 Write Protect
  4377                           ;	WRT1 = OFF, Block 1 (2000-3FFFh) is not write-protected
  4378                           ;	Block 2 Write Protect
  4379                           ;	WRT2 = OFF, Block 2 (04000-5FFFh) is not write-protected
  4380                           ;	Block 3 Write Protect
  4381                           ;	WRT3 = OFF, Block 3 (06000-7FFFh) is not write-protected
  4382  30000A                     	org	3145738
  4383  30000A  0F                 	db	15
  4384                           
  4385                           ;Config register CONFIG6H @ 0x30000B
  4386                           ;	Configuration Registers Write Protect
  4387                           ;	WRTC = OFF, Configuration registers (300000-3000FFh) are not write-protected
  4388                           ;	Boot Block Write Protect
  4389                           ;	WRTB = OFF, Boot block (0000-7FFh) is not write-protected
  4390                           ;	Data EEPROM Write Protect
  4391                           ;	WRTD = OFF, Data EEPROM is not write-protected
  4392  30000B                     	org	3145739
  4393  30000B  E0                 	db	224
  4394                           
  4395                           ;Config register CONFIG7L @ 0x30000C
  4396                           ;	Block 0 Table Read Protect
  4397                           ;	EBTR0 = OFF, Block 0 is not protected from table reads executed in other blocks
  4398                           ;	Block 1 Table Read Protect
  4399                           ;	EBTR1 = OFF, Block 1 is not protected from table reads executed in other blocks
  4400                           ;	Block 2 Table Read Protect
  4401                           ;	EBTR2 = OFF, Block 2 is not protected from table reads executed in other blocks
  4402                           ;	Block 3 Table Read Protect
  4403                           ;	EBTR3 = OFF, Block 3 is not protected from table reads executed in other blocks
  4404  30000C                     	org	3145740
  4405  30000C  0F                 	db	15
  4406                           
  4407                           ;Config register CONFIG7H @ 0x30000D
  4408                           ;	Boot Block Table Read Protect
  4409                           ;	EBTRB = OFF, Boot block is not protected from table reads executed in other blocks
  4410  30000D                     	org	3145741
  4411  30000D  40                 	db	64
  4412                           tosu	equ	0xFFF
  4413                           tosh	equ	0xFFE
  4414                           tosl	equ	0xFFD
  4415                           stkptr	equ	0xFFC
  4416                           pclatu	equ	0xFFB
  4417                           pclath	equ	0xFFA
  4418                           pcl	equ	0xFF9
  4419                           tblptru	equ	0xFF8
  4420                           tblptrh	equ	0xFF7
  4421                           tblptrl	equ	0xFF6
  4422                           tablat	equ	0xFF5
  4423                           prodh	equ	0xFF4
  4424                           prodl	equ	0xFF3
  4425                           indf0	equ	0xFEF
  4426                           postinc0	equ	0xFEE
  4427                           postdec0	equ	0xFED
  4428                           preinc0	equ	0xFEC
  4429                           plusw0	equ	0xFEB
  4430                           fsr0h	equ	0xFEA
  4431                           fsr0l	equ	0xFE9
  4432                           wreg	equ	0xFE8
  4433                           indf1	equ	0xFE7
  4434                           postinc1	equ	0xFE6
  4435                           postdec1	equ	0xFE5
  4436                           preinc1	equ	0xFE4
  4437                           plusw1	equ	0xFE3
  4438                           fsr1h	equ	0xFE2
  4439                           fsr1l	equ	0xFE1
  4440                           bsr	equ	0xFE0
  4441                           indf2	equ	0xFDF
  4442                           postinc2	equ	0xFDE
  4443                           postdec2	equ	0xFDD
  4444                           preinc2	equ	0xFDC
  4445                           plusw2	equ	0xFDB
  4446                           fsr2h	equ	0xFDA
  4447                           fsr2l	equ	0xFD9
  4448                           status	equ	0xFD8

Data Sizes:
    Strings     0
    Constant    0
    Data        0
    BSS         11
    Persistent  6
    Stack       0

Auto Spaces:
    Space          Size  Autos    Used
    COMRAM           94     76      88
    BANK0           160      5      10
    BANK1           256      0       0
    BANK2           256      0       0
    BANK3           256      0       0
    BANK4           256      0       0
    BANK5           256      0       0
    BANK6           256      0       0
    BANK7           256      0       0

Pointer List with Targets:

    INT1_SetInterruptHandler@InterruptHandler	PTR FTN()void  size(2) Largest target is 1
		 -> INT1_DefaultInterruptHandler(), 

    INT1_InterruptHandler	PTR FTN()void  size(2) Largest target is 1
		 -> INT1_DefaultInterruptHandler(), Absolute function(), 

    INT0_SetInterruptHandler@InterruptHandler	PTR FTN()void  size(2) Largest target is 1
		 -> INT0_DefaultInterruptHandler(), 

    INT0_InterruptHandler	PTR FTN()void  size(2) Largest target is 1
		 -> INT0_DefaultInterruptHandler(), Absolute function(), 


Critical Paths under _main in COMRAM

    None.

Critical Paths under _INTERRUPT_InterruptManager in COMRAM

    _INT1_DefaultInterruptHandler->___fltol
    ___xxtofl->___lwdiv
    ___lwdiv->_TMR0_ReadTimer
    ___fltol->___flmul
    ___flsub->___xxtofl
    ___flmul->___flsub

Critical Paths under _main in BANK0

    _main->_display
    _SYSTEM_Initialize->_TMR0_Initialize
    _EXT_INT_Initialize->_INT0_SetInterruptHandler
    _EXT_INT_Initialize->_INT1_SetInterruptHandler

Critical Paths under _INTERRUPT_InterruptManager in BANK0

    None.

Critical Paths under _main in BANK1

    None.

Critical Paths under _INTERRUPT_InterruptManager in BANK1

    None.

Critical Paths under _main in BANK2

    None.

Critical Paths under _INTERRUPT_InterruptManager in BANK2

    None.

Critical Paths under _main in BANK3

    None.

Critical Paths under _INTERRUPT_InterruptManager in BANK3

    None.

Critical Paths under _main in BANK4

    None.

Critical Paths under _INTERRUPT_InterruptManager in BANK4

    None.

Critical Paths under _main in BANK5

    None.

Critical Paths under _INTERRUPT_InterruptManager in BANK5

    None.

Critical Paths under _main in BANK6

    None.

Critical Paths under _INTERRUPT_InterruptManager in BANK6

    None.

Critical Paths under _main in BANK7

    None.

Critical Paths under _INTERRUPT_InterruptManager in BANK7

    None.

Call Graph Tables:

 ---------------------------------------------------------------------------------
 (Depth) Function   	        Calls       Base Space   Used Autos Params    Refs
 ---------------------------------------------------------------------------------
 (0) _main                                                 1     1      0     446
                                              4 BANK0      1     1      0
                  _SYSTEM_Initialize
                            _display
 ---------------------------------------------------------------------------------
 (1) _display                                              4     2      2     250
                                              0 BANK0      4     2      2
 ---------------------------------------------------------------------------------
 (1) _SYSTEM_Initialize                                    0     0      0     196
                 _EXT_INT_Initialize
               _INTERRUPT_Initialize
              _OSCILLATOR_Initialize
             _PIN_MANAGER_Initialize
                    _TMR0_Initialize
 ---------------------------------------------------------------------------------
 (2) _TMR0_Initialize                                      2     2      0       0
                                              0 BANK0      2     2      0
 ---------------------------------------------------------------------------------
 (2) _PIN_MANAGER_Initialize                               0     0      0       0
 ---------------------------------------------------------------------------------
 (2) _OSCILLATOR_Initialize                                0     0      0       0
 ---------------------------------------------------------------------------------
 (2) _INTERRUPT_Initialize                                 0     0      0       0
 ---------------------------------------------------------------------------------
 (2) _EXT_INT_Initialize                                   0     0      0     196
           _INT0_SetInterruptHandler
           _INT1_SetInterruptHandler
 ---------------------------------------------------------------------------------
 (3) _INT1_SetInterruptHandler                             2     0      2      98
                                              0 BANK0      2     0      2
 ---------------------------------------------------------------------------------
 (3) _INT0_SetInterruptHandler                             2     0      2      98
                                              0 BANK0      2     0      2
 ---------------------------------------------------------------------------------
 Estimated maximum stack depth 3
 ---------------------------------------------------------------------------------
 (Depth) Function   	        Calls       Base Space   Used Autos Params    Refs
 ---------------------------------------------------------------------------------
 (4) _INTERRUPT_InterruptManager                           4     4      0    7733
                                             72 COMRAM     4     4      0
                           _INT0_ISR
                           _INT1_ISR
 ---------------------------------------------------------------------------------
 (5) _INT1_ISR                                             0     0      0    7733
                      _INT1_CallBack
 ---------------------------------------------------------------------------------
 (6) _INT1_CallBack                                        0     0      0    7733
                   Absolute function *
       _INT1_DefaultInterruptHandler *
 ---------------------------------------------------------------------------------
 (7) _INT1_DefaultInterruptHandler                         0     0      0    7733
                     _TMR0_ReadTimer
                        _TMR0_Reload
                     _TMR0_StopTimer
                            ___fldiv
                            ___flmul
                            ___flsub
                            ___fltol
                            ___lwdiv
                             ___wmul
                           ___xxtofl
 ---------------------------------------------------------------------------------
 (8) ___xxtofl                                            14    10      4     550
                                             15 COMRAM    14    10      4
                     _TMR0_ReadTimer (ARG)
                            ___lwdiv (ARG)
                             ___wmul (ARG)
 ---------------------------------------------------------------------------------
 (8) ___wmul                                               6     2      4     463
                                              0 COMRAM     6     2      4
 ---------------------------------------------------------------------------------
 (8) ___lwdiv                                              7     3      4     314
                                              8 COMRAM     7     3      4
                     _TMR0_ReadTimer (ARG)
 ---------------------------------------------------------------------------------
 (8) ___fltol                                             10     6      4     457
                                             62 COMRAM    10     6      4
                            ___fldiv (ARG)
                            ___flmul (ARG)
                            ___flsub (ARG)
                             ___wmul (ARG)
                           ___xxtofl (ARG)
 ---------------------------------------------------------------------------------
 (8) ___flsub                                              8     0      8    2737
                                             29 COMRAM     8     0      8
                            ___fladd
                             ___wmul (ARG)
                           ___xxtofl (ARG)
 ---------------------------------------------------------------------------------
 (9) ___fladd                                             16     8      8    2262
                                              0 COMRAM    16     8      8
 ---------------------------------------------------------------------------------
 (8) ___flmul                                             25    17      8    1744
                                             37 COMRAM    25    17      8
                            ___flsub (ARG)
                             ___wmul (ARG)
                           ___xxtofl (ARG)
 ---------------------------------------------------------------------------------
 (8) ___fldiv                                             25    17      8    1399
                                              0 COMRAM    25    17      8
 ---------------------------------------------------------------------------------
 (8) _TMR0_StopTimer                                       0     0      0       0
 ---------------------------------------------------------------------------------
 (8) _TMR0_Reload                                          0     0      0       0
 ---------------------------------------------------------------------------------
 (8) _TMR0_ReadTimer                                       8     6      2      69
                                              0 COMRAM     8     6      2
 ---------------------------------------------------------------------------------
 (5) _INT0_ISR                                             0     0      0       0
                      _INT0_CallBack
 ---------------------------------------------------------------------------------
 (6) _INT0_CallBack                                        0     0      0       0
                   Absolute function *
       _INT0_DefaultInterruptHandler *
 ---------------------------------------------------------------------------------
 (7) _INT0_DefaultInterruptHandler                         0     0      0       0
                    _TMR0_StartTimer
 ---------------------------------------------------------------------------------
 (8) _TMR0_StartTimer                                      0     0      0       0
 ---------------------------------------------------------------------------------
 (7) Absolute function(Fake)                               0     0      0       0
 ---------------------------------------------------------------------------------
 Estimated maximum stack depth 9
 ---------------------------------------------------------------------------------

 Call Graph Graphs:

 _main (ROOT)
   _SYSTEM_Initialize
     _EXT_INT_Initialize
       _INT0_SetInterruptHandler
       _INT1_SetInterruptHandler
     _INTERRUPT_Initialize
     _OSCILLATOR_Initialize
     _PIN_MANAGER_Initialize
     _TMR0_Initialize
   _display

 _INTERRUPT_InterruptManager (ROOT)
   _INT0_ISR
     _INT0_CallBack
       Absolute function(Fake) *
       _INT0_DefaultInterruptHandler *
         _TMR0_StartTimer
   _INT1_ISR
     _INT1_CallBack
       Absolute function(Fake) *
       _INT1_DefaultInterruptHandler *
         _TMR0_ReadTimer
         _TMR0_Reload
         _TMR0_StopTimer
         ___fldiv
         ___flmul
           ___flsub (ARG)
             ___fladd
             ___wmul (ARG)
             ___xxtofl (ARG)
               _TMR0_ReadTimer (ARG)
               ___lwdiv (ARG)
                 _TMR0_ReadTimer (ARG)
               ___wmul (ARG)
           ___wmul (ARG)
           ___xxtofl (ARG)
             _TMR0_ReadTimer (ARG)
             ___lwdiv (ARG)
               _TMR0_ReadTimer (ARG)
             ___wmul (ARG)
         ___flsub
           ___fladd
           ___wmul (ARG)
           ___xxtofl (ARG)
             _TMR0_ReadTimer (ARG)
             ___lwdiv (ARG)
               _TMR0_ReadTimer (ARG)
             ___wmul (ARG)
         ___fltol
           ___fldiv (ARG)
           ___flmul (ARG)
             ___flsub (ARG)
               ___fladd
               ___wmul (ARG)
               ___xxtofl (ARG)
                 _TMR0_ReadTimer (ARG)
                 ___lwdiv (ARG)
                   _TMR0_ReadTimer (ARG)
                 ___wmul (ARG)
             ___wmul (ARG)
             ___xxtofl (ARG)
               _TMR0_ReadTimer (ARG)
               ___lwdiv (ARG)
                 _TMR0_ReadTimer (ARG)
               ___wmul (ARG)
           ___flsub (ARG)
             ___fladd
             ___wmul (ARG)
             ___xxtofl (ARG)
               _TMR0_ReadTimer (ARG)
               ___lwdiv (ARG)
                 _TMR0_ReadTimer (ARG)
               ___wmul (ARG)
           ___wmul (ARG)
           ___xxtofl (ARG)
             _TMR0_ReadTimer (ARG)
             ___lwdiv (ARG)
               _TMR0_ReadTimer (ARG)
             ___wmul (ARG)
         ___lwdiv
           _TMR0_ReadTimer (ARG)
         ___wmul
         ___xxtofl
           _TMR0_ReadTimer (ARG)
           ___lwdiv (ARG)
             _TMR0_ReadTimer (ARG)
           ___wmul (ARG)

 Address spaces:
Name               Size   Autos  Total    Cost      Usage
BIGRAM             7FF      0       0      21        0.0%
EEDATA             100      0       0       0        0.0%
BITBANK7           100      0       0      19        0.0%
BANK7              100      0       0      20        0.0%
BITBANK6           100      0       0      17        0.0%
BANK6              100      0       0      18        0.0%
BITBANK5           100      0       0      15        0.0%
BANK5              100      0       0      16        0.0%
BITBANK4           100      0       0      13        0.0%
BANK4              100      0       0      14        0.0%
BITBANK3           100      0       0      11        0.0%
BANK3              100      0       0      12        0.0%
BITBANK2           100      0       0       9        0.0%
BANK2              100      0       0      10        0.0%
BITBANK1           100      0       0       7        0.0%
BANK1              100      0       0       8        0.0%
BITBANK0            A0      0       0       4        0.0%
BANK0               A0      5       A       5        6.2%
BITCOMRAM           5E      0       0       0        0.0%
COMRAM              5E     4C      58       1       93.6%
BITSFR_1             0      0       0     200        0.0%
SFR_1                0      0       0     200        0.0%
BITSFR               0      0       0     200        0.0%
SFR                  0      0       0     200        0.0%
STACK                0      0       0       2        0.0%
NULL                 0      0       0       0        0.0%
ABS                  0      0      62       6        0.0%
DATA                 0      0      62       3        0.0%
CODE                 0      0       0       0        0.0%


Microchip Technology PIC18 Macro Assembler V2.30 build 20200825195618 
Symbol Table                                                                                   Thu Sep 24 20:54:28 2020

                            ___fldiv@aexp 0019                              ___fldiv@bexp 0018  
                            ___fldiv@sign 0011                                        l39 13B8  
                                      l73 14E6                                        l91 1440  
                                      l76 14F8                       ___wmul@multiplicand 0003  
                         _timer0ReloadVal 0057                                       l202 146A  
                                     l132 1530                                       l251 12A6  
                                     l183 150C                                       l239 1204  
                                     l196 1502                ??_INT0_SetInterruptHandler 0062  
                                     tosl 000FFD                                       wreg 000FE8  
                           _INT0_CallBack 13BA                              ___flmul@aexp 0037  
                            ___flmul@bexp 0038                              ___flmul@sign 0032  
                            ___flmul@temp 003D                              ___flmul@prod 0039  
                           _INT1_CallBack 13EA                              ___fltol@exp1 0048  
                                    l2410 14D6                                      l2412 14DA  
                                    l2500 12AE                                      l2414 14DE  
                                    l2430 114E                                      l2502 12B0  
                                    l2352 14FA                                      l2416 14E2  
                                    l2408 14D2                                      l2440 1176  
                                    l2432 1156                                      l2370 139E  
                                    l2442 117E                                      l2434 115E  
                                    l2450 1196                                      l2426 1142  
                                    l2348 1504                                      l2380 1446  
                                    l2372 13B6                                      l2444 1186  
                                    l2436 1166                                      l2428 1146  
                                    l2382 1454                                      l2374 152E  
                                    l2366 1378                                      l2390 1418  
                                    l2534 11AE                                      l2446 118E  
                                    l2438 116E                                      l2470 120A  
                                    l2384 1456                                      l2376 14E8  
                                    l2368 1390                                      l2392 141A  
                                    l2480 121A                                      l2472 120C  
                                    l2386 1458                                      l2378 1442  
                                    l2394 1422                                      l2490 125E  
                                    l2482 121E                                      l2474 120E  
                                    l2388 1468                                      l2396 143A  
                                    l2492 1262                                      l2484 122A  
                                    l2476 1210                                      l2468 1206  
                                    l2398 143C                                      l2494 1280  
                                    l2486 1240                                      l2478 1218  
                                    l2496 1292                                      l2488 124C  
                                    l2498 12A4                                      u2200 1292  
                                    u2201 128E                                      _LATA 000F89  
                                    _LATB 000F8A                                      _LATC 000F8B  
                                    _LATD 000F8C                                      u2217 1212  
                                    _LATE 000F8D                                      u2227 1232  
                                    u2237 1254                                      u2247 1276  
                                    u2257 129A                                      u2267 12A8  
                                    i2l94 1538                                      i2l97 1534  
                                    _WPUB 000F85                                      _main 1206  
                         _TMR0_StartTimer 1536                                      btemp 0059  
                                    prodh 000FF4                                      prodl 000FF3  
                                    start 0072                           ___fldiv@new_exp 0012  
                            ___param_bank 000000                   __end_of_TMR0_Initialize 1442  
                        __end_of_INT0_ISR 1528                          __end_of_INT1_ISR 1520  
          __size_of_OSCILLATOR_Initialize 0012             __end_of_OSCILLATOR_Initialize 14FA  
                           ___fltol@sign1 0047                           __end_of___fladd 0536  
                                   ?_main 0001                           __end_of___fldiv 0CFA  
                         __end_of___flmul 0960                 TMR0_ReadTimer@readValHigh 0008  
                         __end_of___flsub 1378                           __end_of___fltol 1142  
                                   _T0CON 000FD5                           __end_of___lwdiv 1332  
                                   i2l100 14D0                                     i2l106 1516  
                                   i2l141 005E                                     i2l137 003E  
                                   i2l180 13E8                                     i2l176 1526  
                                   i2l193 1416                                     i2l186 152C  
                                   i2l259 1490                                     i2l189 151E  
                                   i2l199 103A                                     i2l804 037E  
                                   i2l556 1140                                     i2l813 044E  
                                   i2l814 043C                                     i2l750 1328  
                                   i2l841 0CF8                                     i2l921 0DE8  
                                   i2l914 0D50                                     i2l843 0B58  
                                   i2l852 0B9E                                     i2l829 1376  
                                   i2l757 1330                                     i2l917 0EAC  
                                   i2l854 0C16                                     i2l846 0B1C  
                                   i2l855 0C04                                     i2l880 07F0  
                                   i2l928 0E44                                     i2l873 05FA  
                                   i2l890 0920                                     i2l882 0868  
                                   i2l883 0856                                     i2l787 0264  
                                   i2l796 0534                                     i2l788 0252  
                                   i2l877 095E                                     i2l789 0218  
                                   _TMR0H 000FD7                                     _TMR0L 000FD6  
                                   _PORTC 000F82                                     _PORTD 000F83  
                                   _TRISA 000F92                                     _TRISB 000F93  
                          ?_INT0_CallBack 0001                                     _TRISC 000F94  
                                   _TRISD 000F95                                     _TRISE 000F96  
                         __end_of_display 1206                            ?_INT1_CallBack 0001  
          ??_INT1_DefaultInterruptHandler 0049                  _INT1_SetInterruptHandler 14FA  
                                   pclath 000FFA                                     ttemp5 005A  
                                   ttemp6 005D                                     ttemp7 0061  
                                   status 000FD8                                     wtemp8 005A  
                         __initialization 1492                              __end_of_main 12BE  
             ?_INTERRUPT_InterruptManager 0001                                    ??_main 0064  
                           __activetblptr 000002                   __end_of_TMR0_StartTimer 153A  
                                  _ACTCON 000FB5                                    _ANSELA 000F5B  
                                  _ANSELB 000F5C                                    _ANSELC 000F5D  
                                  _ANSELD 000F5E                                    _ANSELE 000F5F  
                                  i2l2000 0A2C                                    i2l2002 0A42  
                                  i2l2020 0A96                                    i2l2004 0A52  
                                  i2l2012 0A72                                    i2l2100 0536  
                                  i2l2030 0AE8                                    i2l2022 0AB0  
                                  i2l2014 0A82                                    i2l2006 0A5A  
                                  i2l2110 0572                                    i2l2102 0542  
                                  i2l2040 0B44                                    i2l2032 0AF8  
                                  i2l2024 0AC0                                    i2l2016 0A82  
                                  i2l2008 0A5E                                    i2l2200 0878  
                                  i2l2120 05A4                                    i2l2112 0582  
                                  i2l2104 0550                                    i2l2050 0B84  
                                  i2l2042 0B46                                    i2l2034 0B0C  
                                  i2l2026 0AD0                                    i2l2210 08DA  
                                  i2l2202 0884                                    i2l2130 05E4  
                                  i2l2122 05B2                                    i2l2114 0588  
                                  i2l2106 0552                                    i2l2060 0BC0  
                                  i2l2052 0B8E                                    i2l2044 0B56  
                                  i2l2036 0B1A                                    i2l2028 0AE0  
                                  i2l2220 0942                                    i2l2212 08EE  
                                  i2l2204 0892                                    i2l2140 062E  
                                  i2l2132 05EA                                    i2l2124 05B4  
                                  i2l2116 0598                                    i2l2108 0562  
                                  i2l2300 1322                                    i2l2070 0C32  
                                  i2l2062 0BCE                                    i2l2054 0B9C  
                                  i2l2046 0B68                                    i2l2038 0B26  
                                  i2l2222 0944                                    i2l2214 0908  
                                  i2l2206 08BC                                    i2l2150 067E  
                                  i2l2142 063A                                    i2l2134 060A  
                                  i2l2126 05C4                                    i2l2118 059E  
                                  i2l2230 1332                                    i2l2310 0D76  
                                  i2l2302 0CFC                                    i2l2400 13BA  
                                  i2l2080 0C9E                                    i2l2072 0C40  
                                  i2l2064 0BFC                                    i2l2048 0B7E  
                                  i2l2056 0BAE                                    i2l2216 0924  
                                  i2l2224 094A                                    i2l2208 08C0  
                                  i2l2160 06C0                                    i2l2152 068A  
                                  i2l2144 0644                                    i2l2136 061A  
                                  i2l2128 05D4                                    i2l2232 1342  
                                  i2l2320 0DD0                                    i2l2304 0D0C  
                                  i2l2402 13CE                                    i2l2090 0CEC  
                                  i2l2082 0CB8                                    i2l2074 0C6A  
                                  i2l2058 0BBC                                    i2l2226 094E  
                                  i2l2218 0934                                    i2l2170 0722  
                                  i2l2162 06CC                                    i2l2154 0696  
                                  i2l2146 065A                                    i2l2250 10A6  
                                  i2l2242 1066                                    i2l2330 0E34  
                                  i2l2322 0DD2                                    i2l2314 0D8A  
                                  i2l2306 0D1A                                    i2l2420 1522  
                                  i2l2092 0CEE                                    i2l2084 0CD4  
                                  i2l2068 0C26                                    i2l2076 0C6E  
                                  i2l2180 07B8                                    i2l2172 072E  
                                  i2l2164 06DC                                    i2l2156 06A4  
                                  i2l2148 0666                                    i2l2260 10D6  
                                  i2l2252 10B4                                    i2l2244 1090  
                                  i2l2236 103C                                    i2l2340 0E8C  
                                  i2l2332 0E52                                    i2l2324 0DDE  
                                  i2l2316 0D92                                    i2l2308 0D60  
                                  i2l2404 13EA                                    i2l2350 1528  
                                  i2l2086 0CD8                                    i2l2078 0C88  
                                  i2l2190 080E                                    i2l2182 07D6  
                                  i2l2174 074A                                    i2l2166 06F6  
                                  i2l2158 06B0                                    i2l2270 1100  
                                  i2l2262 10E0                                    i2l2246 1092  
                                  i2l2238 1052                                    i2l2342 0E9A  
                                  i2l2334 0E54                                    i2l2326 0E1A  
                                  i2l2318 0D9E                                    i2l2406 13FC  
                                  i2l2422 1518                                    i2l2088 0CE6  
                                  i2l2192 0812                                    i2l2184 07E0  
                                  i2l2176 0774                                    i2l2168 0706  
                                  i2l1800 0196                                    i2l2272 1110  
                                  i2l2248 10A2                                    i2l2280 12BE  
                                  i2l2344 0E9C                                    i2l2336 0E58  
                                  i2l2328 0E26                                    i2l2360 0F2C  
                                  i2l2424 151A                                    i2l2418 1520  
                                  i2l2194 0820                                    i2l2186 07EE  
                                  i2l2178 07AA                                    i2l1810 01AA  
                                  i2l1802 019A                                    i2l2274 1120  
                                  i2l2258 10CC                                    i2l2290 12F6  
                                  i2l2282 12C6                                    i2l2338 0E7C  
                                  i2l2362 0F98                                    i2l2354 0EAE  
                                  i2l2196 084E                                    i2l2188 0800  
                                  i2l1900 0410                                    i2l1820 01E4  
                                  i2l1812 01AE                                    i2l1804 019E  
                                  i2l1740 0082                                    i2l2276 1130  
                                  i2l2268 10F4                                    i2l2292 12FC  
                                  i2l2284 12D8                                    i2l2364 1030  
                                  i2l2356 0EB2                                    i2l2460 0028  
                                  i2l1910 046A                                    i2l1902 041E  
                                  i2l1830 0236                                    i2l1822 0200  
                                  i2l1814 01B2                                    i2l1806 01A2  
                                  i2l1750 00C2                                    i2l1742 0090  
                                  i2l2294 1312                                    i2l2286 12E0  
                                  i2l2358 0EEC                                    i2l2462 0036  
                                  i2l1920 04D4                                    i2l1912 0478  
                                  i2l1904 0434                                    i2l1840 0282  
                                  i2l1832 0244                                    i2l1824 0210  
                                  i2l1808 01A6                                    i2l1816 01B6  
                                  i2l1760 00F4                                    i2l1752 00C4  
                                  i2l1744 0092                                    i2l2296 131A  
                                  i2l2288 12E8                                    i2l2464 004C  
                                  i2l1930 050E                                    i2l1922 04F4  
                                  i2l1914 04B2                                    i2l1850 02C2  
                                  i2l1834 0246                                    i2l1826 0226  
                                  i2l1818 01BA                                    i2l1770 011C  
                                  i2l1762 00F6                                    i2l1746 00A2  
                                  i2l1754 00CC                                    i2l1738 0076  
                                  i2l2298 131C                                    i2l2466 005A  
                                  i2l2458 001A                                    i2l1940 1536  
                                  i2l1932 0514                                    i2l1924 04F8  
                                  i2l1908 045E                                    i2l1916 04B4  
                                  i2l1860 02EC                                    i2l1852 02CE  
                                  i2l1844 0296                                    i2l1836 0250  
                                  i2l1828 0232                                    i2l1780 0156  
                                  i2l1772 012C                                    i2l1764 00FC  
                                  i2l1756 00DC                                    i2l1748 00B2  
                                  i2l1942 1532                                    i2l1934 0522  
                                  i2l1926 0506                                    i2l1918 04C4  
                                  i2l1870 035E                                    i2l1854 02D2  
                                  i2l1846 02A6                                    i2l1838 0272  
                                  i2l1862 02F2                                    i2l1790 0182  
                                  i2l1782 0168                                    i2l1774 013C  
                                  i2l1766 010A                                    i2l1758 00E2  
                                  i2l1944 14B4                                    i2l1952 150E  
                                  i2l1936 0524                                    i2l1928 050C  
                                  i2l1880 03B8                                    i2l1864 0318  
                                  i2l1872 036E                                    i2l1856 02E0  
                                  i2l1848 02B4                                    i2l1792 0186  
                                  i2l1784 0176                                    i2l1776 013E  
                                  i2l1768 010C                                    i2l1946 14BC  
                                  i2l1954 1512                                    i2l1970 098C  
                                  i2l1962 0960                                    i2l1890 03E8  
                                  i2l1882 03C2                                    i2l1874 0394  
                                  i2l1866 034C                                    i2l1858 02E2  
                                  i2l1794 018A                                    i2l1786 017A  
                                  i2l1778 0146                                    i2l1948 14C8  
                                  i2l1980 09C6                                    i2l1972 099C  
                                  i2l1964 096C                                    i2l1892 03EC  
                                  i2l1884 03D0                                    i2l1876 03A4  
                                  i2l1868 034E                                    i2l1796 018E  
                                  i2l1788 017E                                    i2l1956 146C  
                                  i2l1990 09F2                                    i2l1982 09CC  
                                  i2l1974 09AC                                    i2l1966 097A  
                                  i2l1894 03FC                                    i2l1886 03D2  
                                  i2l1798 0192                                    i2l1958 1488  
                                  i2l1992 0A02                                    i2l1984 09D2  
                                  i2l1976 09AE                                    i2l1968 097C  
                                  i2l1888 03E0                                    i2l1896 03FE  
                                  i2l1994 0A12                                    i2l1986 09E0  
                                  i2l1978 09B6                                    i2l1898 040C  
                                  i2l1996 0A14                                    i2l1988 09E2  
                                  i2l1998 0A1C                                    _OSCCON 000FD3  
                        __end_of___xxtofl 0EAE                              ?_TMR0_Reload 0001  
                               ??___fladd 0009                                    ___wmul 146C  
                               ??___fldiv 0009                                    _decena 0051  
                               ??___flmul 002E                                 ??___flsub 0026  
                               ??___fltol 0043                                 ??___lwdiv 000D  
                        ?_TMR0_Initialize 0001                                    clear_0 14A0  
                                  _unidad 0053                           ??_INT0_CallBack 0001  
                               ??_display 0062                           ??_INT1_CallBack 0049  
                                  tblptru 000FF8  INT1_SetInterruptHandler@InterruptHandler 0060  
INT0_SetInterruptHandler@InterruptHandler 0060             __size_of_INTERRUPT_Initialize 0004  
                            ___xxtofl@arg 001A                              ___xxtofl@exp 0019  
                       _SYSTEM_Initialize 14D2                              ___xxtofl@val 0010  
                              __accesstop 0060                   __end_of__initialization 14A6  
                               ?_INT0_ISR 0001                                 ?_INT1_ISR 0001  
                      ?_SYSTEM_Initialize 0001                             ___rparam_used 000001  
                              ___fltol@f1 003F                            __pcstackCOMRAM 0001  
                     ??_SYSTEM_Initialize 0062                   __size_of_TMR0_ReadTimer 001E  
             __size_of_EXT_INT_Initialize 002A                          ?_TMR0_StartTimer 0001  
               __end_of_SYSTEM_Initialize 14E8                                __pbssBANK0 0065  
                   _INT0_InterruptHandler 0068                                ??_INT0_ISR 0001  
                              ??_INT1_ISR 0049                                __pnvCOMRAM 0055  
                 __size_of_TMR0_StopTimer 0004                                   ?___wmul 0001  
              ??_INT1_SetInterruptHandler 0062                                 ?___xxtofl 0010  
                                 _OSCCON2 000FD2                                   _OSCTUNE 000F9B  
       __size_of_INT0_SetInterruptHandler 000A                 ?_INT0_SetInterruptHandler 0060  
                                 __Hparam 0000                                   __Lparam 0000  
                                 ___fladd 0076                                   ___fldiv 0960  
                                 ___flmul 0536                                   ___flsub 1332  
                                 ___fltol 103C                           __size_of___wmul 0026  
                                 ___lwdiv 12BE                      __size_of_TMR0_Reload 000A  
                                 _decimal 0065                                   __pcinit 1492  
                                 __ramtop 0800                                   __ptext0 1206  
                                 __ptext1 1142                                   __ptext2 14D2  
                                 __ptext3 1418                                   __ptext4 1378  
                                 __ptext5 14E8                                   __ptext6 152E  
                                 __ptext7 1442                                   __ptext8 14FA  
                                 __ptext9 1504                                   _display 1142  
                               _T0CONbits 000FD5                     _OSCILLATOR_Initialize 14E8  
                              ??___xxtofl 0014                  ??_PIN_MANAGER_Initialize 0060  
              __size_of_SYSTEM_Initialize 0016                      end_of_initialization 14A6  
                           __Lmediumconst 0000                     TMR0_ReadTimer@readVal 0005  
                                 postinc0 000FEE                            _TMR0_ReadTimer 14B4  
                   _INT1_InterruptHandler 0055                               ___fladd@grs 0010  
                           ___xxtofl@sign 0018                               ___fldiv@grs 0014  
                             ___fldiv@rem 000D                               ___flmul@grs 0033  
                              display@num 0060                         __size_of_INT0_ISR 0008  
                       __size_of_INT1_ISR 0008                            _TMR0_StopTimer 1532  
                  __end_of_TMR0_ReadTimer 14D2              __end_of_INTERRUPT_Initialize 1532  
    __end_of_INT0_DefaultInterruptHandler 152E     __size_of_INT0_DefaultInterruptHandler 0006  
            _INT0_DefaultInterruptHandler 1528                            __end_of___wmul 1492  
                  ?_OSCILLATOR_Initialize 0001                     __end_of_INT0_CallBack 13EA  
                     start_initialization 1492                  __size_of_TMR0_Initialize 002A  
         __size_of_PIN_MANAGER_Initialize 0042                     __end_of_INT1_CallBack 1418  
                  __end_of_TMR0_StopTimer 1536                           ?_TMR0_ReadTimer 0001  
                                ??___wmul 0005                __end_of_EXT_INT_Initialize 146C  
         fp__INT0_DefaultInterruptHandler 0000             ?_INT0_DefaultInterruptHandler 0001  
                               ___fladd@a 0005                                 ___fladd@b 0001  
                               ___fldiv@a 0005                                 ___fldiv@b 0001  
                               ___flmul@a 002A                                 ___flmul@b 0026  
                             __pbssCOMRAM 004D                                 ___flsub@a 0022  
                               ___flsub@b 001E          __end_of_INT0_SetInterruptHandler 150E  
                           __pcstackBANK0 0060                         __size_of___xxtofl 01B4  
                               __pnvBANK0 0068                  __size_of_TMR0_StartTimer 0004  
                         ?_TMR0_StopTimer 0001                          ___lwdiv@dividend 0009  
                  _PIN_MANAGER_Initialize 1378                                 __pintcode 0008  
                                ?___fladd 0001                                  ?___fldiv 0001  
                                ?___flmul 0026                                  ?___flsub 001E  
                                ?___fltol 003F                                  ?___lwdiv 0009  
            ??_INTERRUPT_InterruptManager 0049                                 _distancia 004D  
                                ?_display 0060                          ___lwdiv@quotient 000D  
                    _INTERRUPT_Initialize 152E                         ??_TMR0_Initialize 0060  
                                _INT0_ISR 1520                                  _INT1_ISR 1518  
                          ___wmul@product 0005                                  _LATBbits 000F8A  
       __size_of_INT1_SetInterruptHandler 000A                 ?_INT1_SetInterruptHandler 0060  
                                i2u111_40 0090                                  i2u111_41 008C  
                                i2u120_40 01E4                                  i2u112_40 00A2  
                                i2u200_40 12F6                                  i2u120_41 01E0  
                                i2u112_41 009E                                  i2u200_41 12F2  
                                i2u121_40 01FC                                  i2u113_40 00B2  
                                i2u201_40 1312                                  i2u121_41 01F6  
                                i2u113_41 00AE                                  i2u201_41 130E  
                                i2u130_40 02E0                                  i2u122_40 01FE  
                                i2u114_40 00F4                                  i2u210_40 0E8C  
                                i2u202_40 0D0C                                  i2u130_41 02DC  
                                i2u114_41 00F0                                  i2u210_41 0E88  
                                i2u202_41 0D08                                  i2u131_40 0318  
                                i2u123_40 0226                                  i2u115_40 010A  
                                i2u211_40 0E9A                                  i2u203_40 0D1A  
                                i2u131_41 0314                                  i2u123_41 0222  
                                i2u115_41 0106                                  i2u211_41 0E96  
                                i2u203_41 0D16                                  i2u212_40 13CE  
                                i2u140_40 0434                                  i2u132_40 035E  
                                i2u124_40 0244                                  i2u116_40 011C  
                                i2u204_40 0D76                                  i2u212_41 13CA  
                                i2u140_41 0430                                  i2u132_41 035A  
                                i2u124_41 0240                                  i2u116_41 0118  
                                i2u204_41 0D72                                  i2u141_40 044A  
                                i2u133_40 0394                                  i2u125_40 0264  
                                i2u117_40 012C                                  i2u205_40 0DCC  
                                i2u141_41 0446                                  i2u133_41 0390  
                                i2u125_41 0260                                  i2u117_41 0128  
                                i2u205_41 0DC8                                  i2u213_48 13D4  
                                i2u150_40 097A                                  i2u142_40 045E  
                                i2u134_40 03A4                                  i2u126_40 0272  
                                i2u118_40 0168                                  i2u206_40 0E16  
                                i2u214_40 13FC                                  i2u213_49 13E8  
                                i2u150_41 0976                                  i2u142_41 045A  
                                i2u134_41 03A0                                  i2u126_41 026E  
                                i2u118_41 0164                                  i2u206_41 0E12  
                                i2u214_41 13F8                                  i2u151_40 098C  
                                i2u143_40 0478                                  i2u135_40 03D0  
                                i2u127_40 0282                                  i2u119_40 0176  
                                i2u207_40 0E34                                  i2u151_41 0988  
                                i2u143_41 0474                                  i2u135_41 03CC  
                                i2u127_41 027E                                  i2u119_41 0172  
                                i2u207_41 0E30       __size_of_INTERRUPT_InterruptManager 006A  
                                i2u160_40 0B44                                  i2u152_40 099C  
                                i2u144_40 04B2                                  i2u136_40 03E0  
                                i2u128_40 02B4                                  i2u208_40 0E44  
                                i2u215_48 1402                                  i2u216_40 0028  
                                i2u160_41 0B40                                  i2u152_41 0998  
                                i2u144_41 04AE                                  i2u136_41 03DC  
                                i2u128_41 02B0                                  i2u208_41 0E40  
                                i2u215_49 1416                                  i2u216_41 0024  
                                i2u161_40 0B68                                  i2u153_40 09E0  
                                i2u145_40 04C4                                  i2u137_40 03FC  
                                i2u129_40 02C2                                  i2u209_40 0E52  
                                i2u217_40 0036                                  i2u161_41 0B64  
                                i2u153_41 09DC                                  i2u145_41 04C0  
                                i2u137_41 03F8                                  i2u129_41 02BE  
                                i2u209_41 0E4E                                  i2u217_41 0032  
                                i2u170_40 0C88                                  i2u162_40 0B7E  
                                i2u154_40 09F2                                  i2u146_40 04D4  
                                i2u138_40 040C                                  i2u218_40 004C  
                                i2u170_41 0C84                                  i2u162_41 0B7A  
                                i2u154_41 09EE                                  i2u146_41 04D0  
                                i2u138_41 0408                                  i2u218_41 0048  
                                i2u171_40 0CB8                                  i2u163_40 0B9C  
                                i2u155_40 0A02                                  i2u147_40 04F4  
                                i2u139_40 041E                                  i2u219_40 005A  
                                i2u171_41 0CB4                                  i2u163_41 0B98  
                                i2u155_41 09FE                                  i2u147_41 04F0  
                                i2u139_41 041A                                  i2u219_41 0056  
                                i2u172_40 0CE6                                  i2u164_40 0BBC  
                                i2u156_40 0A42                                  i2u180_40 061A  
                                i2u148_40 0506                                  i2u172_41 0CE2  
                                i2u164_41 0BB8                                  i2u156_41 0A3E  
                                i2u180_41 0616                                  i2u148_41 0502  
                                i2u165_40 0BCE                                  i2u157_40 0A82  
                                i2u181_40 0794                                  i2u173_40 0550  
                                i2u149_40 0522                                  i2u165_41 0BCA  
                                i2u157_41 0A7E                                  i2u173_41 054C  
                                i2u149_41 051E                                  i2u181_45 078A  
                                i2u166_40 0BFC                                  i2u158_40 0AF8  
                                i2u190_40 0908                                  i2u182_40 07EE  
                                i2u174_40 0562                                  i2u166_41 0BF8  
                                i2u158_41 0AF4                                  i2u190_41 0904  
                                i2u182_41 07EA                                  i2u174_41 055E  
                                i2u167_40 0C12                                  i2u159_40 0B1A  
                                i2u191_40 0942                                  i2u183_40 080E  
                                i2u175_40 0572                                  i2u167_41 0C0E  
                                i2u159_41 0B16                                  i2u191_41 093E  
                                i2u183_41 080A                                  i2u175_41 056E  
                                i2u168_40 0C26                                  i2u184_40 0820  
                                i2u176_40 05B2                                  i2u192_40 1052  
                                i2u168_41 0C22                                  i2u184_41 081C  
                                i2u176_41 05AE                                  i2u192_41 104E  
                                i2u169_40 0C40                                  i2u185_40 084E  
                                i2u177_40 05C4                                  i2u193_40 1086  
                                i2u169_41 0C3C                                  i2u185_41 084A  
                                i2u177_41 05C0                                  i2u193_45 107C  
                                i2u186_40 0864                                  i2u178_40 05D4  
                                i2u194_40 10B4                                  i2u186_41 0860  
                                i2u178_41 05D0                                  i2u194_41 10B0  
                                i2u187_40 0878                                  i2u179_40 060A  
                                i2u195_40 10C8                                  i2u187_41 0874  
                                i2u179_41 0606                                  i2u195_41 10C4  
                                i2u188_40 0892                                  i2u196_40 10F0  
                                i2u188_41 088E                                  i2u196_41 10EC  
                                i2u189_40 08DA                                  i2u197_40 1110  
                                i2u189_41 08D6                                  i2u197_41 110C  
                                i2u198_40 1120                                  i2u198_41 111C  
                                i2u199_40 12D8                                  i2u199_41 12D4  
                           ??_TMR0_Reload 0001                                  _RCONbits 000FD0  
                TMR0_ReadTimer@readValLow 0007                         ___wmul@multiplier 0001  
          ??_INT0_DefaultInterruptHandler 0001                               _INTCON2bits 000FF1  
                             _INTCON3bits 000FF0                     ?_INTERRUPT_Initialize 0001  
                _INT0_SetInterruptHandler 1504                                  __Hrparam 0000  
                                __Lrparam 0000                             _enabletrigger 0067  
                 ??_OSCILLATOR_Initialize 0060                         ??_TMR0_StartTimer 0001  
                        __size_of___fladd 04C0                          __size_of___fldiv 039A  
                        __size_of___flmul 042A                          __size_of___flsub 0046  
                        __size_of___fltol 0106                          __size_of___lwdiv 0074  
                     __end_of_TMR0_Reload 1518                          __size_of_display 00C4  
                                ___xxtofl 0CFA                           ___lwdiv@divisor 000B  
                         ___lwdiv@counter 000F                                  __ptext11 1518  
                                __ptext20 0536                                  __ptext12 13EA  
                                __ptext21 0960                                  __ptext13 0EAE  
                                __ptext22 1532                                  __ptext14 0CFA  
                                __ptext23 150E                                  __ptext15 146C  
                                __ptext24 14B4                                  __ptext16 12BE  
                                __ptext25 1520                                  __ptext17 103C  
                                __ptext26 13BA                                  __ptext18 1332  
                                __ptext27 1528                                  __ptext19 0076  
                                __ptext28 1536                                  __ptext29 0000  
                           __size_of_main 00B8                          ??_TMR0_ReadTimer 0003  
                                int$flags 0059        __end_of_INTERRUPT_InterruptManager 0072  
              _INTERRUPT_InterruptManager 0008      __end_of_INT1_DefaultInterruptHandler 103C  
   __size_of_INT1_DefaultInterruptHandler 018E              _INT1_DefaultInterruptHandler 0EAE  
                              _INTCONbits 000FF2                    ??_INTERRUPT_Initialize 0060  
                      _EXT_INT_Initialize 1442                                  intlevel2 0000  
                        ??_TMR0_StopTimer 0001                   ?_PIN_MANAGER_Initialize 0001  
                     ?_EXT_INT_Initialize 0001                    __size_of_INT0_CallBack 0030  
                             _TMR0_Reload 150E                    __size_of_INT1_CallBack 002E  
                    ??_EXT_INT_Initialize 0062           fp__INT1_DefaultInterruptHandler 0000  
           ?_INT1_DefaultInterruptHandler 0001                           _TMR0_Initialize 1418  
        __end_of_INT1_SetInterruptHandler 1504                             ___fladd@signs 000D  
          __end_of_PIN_MANAGER_Initialize 13BA                              ___fladd@aexp 000E  
                            ___fladd@bexp 000F  
